
main.o:     file format elf32-avr


Disassembly of section .text:

00000000 <__vectors>:
       0:	0c 94 ff 02 	jmp	0x5fe	; 0x5fe <__ctors_end>
       4:	0c 94 f5 08 	jmp	0x11ea	; 0x11ea <__vector_1>
       8:	0c 94 1c 03 	jmp	0x638	; 0x638 <__bad_interrupt>
       c:	0c 94 1e 03 	jmp	0x63c	; 0x63c <__vector_3>
      10:	0c 94 1c 03 	jmp	0x638	; 0x638 <__bad_interrupt>
      14:	0c 94 1c 03 	jmp	0x638	; 0x638 <__bad_interrupt>
      18:	0c 94 1c 03 	jmp	0x638	; 0x638 <__bad_interrupt>
      1c:	0c 94 1c 03 	jmp	0x638	; 0x638 <__bad_interrupt>
      20:	0c 94 1c 03 	jmp	0x638	; 0x638 <__bad_interrupt>
      24:	0c 94 1c 03 	jmp	0x638	; 0x638 <__bad_interrupt>
      28:	0c 94 1c 03 	jmp	0x638	; 0x638 <__bad_interrupt>
      2c:	0c 94 1c 03 	jmp	0x638	; 0x638 <__bad_interrupt>
      30:	0c 94 1c 03 	jmp	0x638	; 0x638 <__bad_interrupt>
      34:	0c 94 1c 03 	jmp	0x638	; 0x638 <__bad_interrupt>
      38:	0c 94 1c 03 	jmp	0x638	; 0x638 <__bad_interrupt>
      3c:	0c 94 1c 03 	jmp	0x638	; 0x638 <__bad_interrupt>
      40:	0c 94 2e 03 	jmp	0x65c	; 0x65c <__vector_16>
      44:	0c 94 1c 03 	jmp	0x638	; 0x638 <__bad_interrupt>
      48:	0c 94 1c 03 	jmp	0x638	; 0x638 <__bad_interrupt>
      4c:	0c 94 1c 03 	jmp	0x638	; 0x638 <__bad_interrupt>
      50:	0c 94 1c 03 	jmp	0x638	; 0x638 <__bad_interrupt>
      54:	0c 94 1c 03 	jmp	0x638	; 0x638 <__bad_interrupt>
      58:	0c 94 1c 03 	jmp	0x638	; 0x638 <__bad_interrupt>
      5c:	0c 94 1c 03 	jmp	0x638	; 0x638 <__bad_interrupt>
      60:	0c 94 1c 03 	jmp	0x638	; 0x638 <__bad_interrupt>
      64:	0c 94 1c 03 	jmp	0x638	; 0x638 <__bad_interrupt>
      68:	0c 94 1c 03 	jmp	0x638	; 0x638 <__bad_interrupt>
      6c:	0c 94 1c 03 	jmp	0x638	; 0x638 <__bad_interrupt>
      70:	0c 94 1c 03 	jmp	0x638	; 0x638 <__bad_interrupt>
      74:	0c 94 1c 03 	jmp	0x638	; 0x638 <__bad_interrupt>
      78:	0c 94 1c 03 	jmp	0x638	; 0x638 <__bad_interrupt>
      7c:	2d 0e       	add	r2, r29
      7e:	34 0e       	add	r3, r20
      80:	70 0e       	add	r7, r16
      82:	77 0e       	add	r7, r23
      84:	7e 0e       	add	r7, r30
      86:	85 0e       	add	r8, r21
      88:	94 0e       	add	r9, r20
      8a:	9b 0e       	add	r9, r27
      8c:	a2 0e       	add	r10, r18
      8e:	a9 0e       	add	r10, r25
      90:	b0 0e       	add	r11, r16
      92:	b7 0e       	add	r11, r23
      94:	be 0e       	add	r11, r30
      96:	c5 0e       	add	r12, r21
      98:	cc 0e       	add	r12, r28
      9a:	d3 0e       	add	r13, r19
      9c:	da 0e       	add	r13, r26
      9e:	e1 0e       	add	r14, r17
      a0:	e8 0e       	add	r14, r24
      a2:	ef 0e       	add	r14, r31
      a4:	b3 15       	cp	r27, r3
      a6:	61 0f       	add	r22, r17
      a8:	70 0f       	add	r23, r16
      aa:	55 11       	cpse	r21, r5
      ac:	b9 12       	cpse	r11, r25
      ae:	86 0f       	add	r24, r22
      b0:	9a 0f       	add	r25, r26
      b2:	e0 14       	cp	r14, r0
      b4:	e2 14       	cp	r14, r2
      b6:	e4 14       	cp	r14, r4
      b8:	2c 15       	cp	r18, r12
      ba:	18 11       	cpse	r17, r8
      bc:	71 11       	cpse	r23, r1
      be:	07 16       	cp	r0, r23
      c0:	0b 16       	cp	r0, r27
      c2:	04 14       	cp	r0, r4
      c4:	1f 14       	cp	r1, r15
      c6:	bb 0f       	add	r27, r27
      c8:	72 10       	cpse	r7, r2
      ca:	fa 11       	cpse	r31, r10
      cc:	6d 0f       	add	r22, r29
      ce:	7b 14       	cp	r7, r11
      d0:	4e 14       	cp	r4, r14
      d2:	0d 13       	cpse	r16, r29
      d4:	48 13       	cpse	r20, r24
      d6:	ae 0f       	add	r26, r30
      d8:	ae 0f       	add	r26, r30
      da:	de 15       	cp	r29, r14
      dc:	2a 14       	cp	r2, r10
      de:	3b 14       	cp	r3, r11
      e0:	7b 14       	cp	r7, r11
      e2:	bb 0f       	add	r27, r27
      e4:	bb 0f       	add	r27, r27
      e6:	55 0f       	add	r21, r21
      e8:	dc 0f       	add	r29, r28
      ea:	07 10       	cpse	r0, r7
      ec:	2d 10       	cpse	r2, r13
      ee:	51 10       	cpse	r5, r1
      f0:	32 10       	cpse	r3, r2
      f2:	bb 0f       	add	r27, r27
      f4:	bb 0f       	add	r27, r27
      f6:	bb 0f       	add	r27, r27
      f8:	bb 0f       	add	r27, r27
      fa:	bb 0f       	add	r27, r27
      fc:	92 13       	cpse	r25, r18
      fe:	ca 13       	cpse	r28, r26
     100:	b9 12       	cpse	r11, r25

00000102 <kb_fail_msg>:
     102:	4b 65 79 62 6f 61 72 64 20 73 65 6c 66 2d 74 65     Keyboard self-te
     112:	73 74 20 66 61 69 6c 65 64 00                       st failed.

0000011c <kb_success_msg>:
     11c:	4b 65 79 62 6f 61 72 64 20 63 6f 6e 6e 65 63 74     Keyboard connect
     12c:	65 64 20 73 75 63 63 65 73 73 66 75 6c 6c 79 00     ed successfully.

0000013c <to_ascii>:
	...
     154:	60 7e 60 7e 00 00 00 00 00 00 00 00 00 00 00 00     `~`~............
	...
     170:	09 09 09 09 60 7e 60 7e 00 00 00 00 00 00 00 00     ....`~`~........
	...
     190:	71 51 51 71 31 21 31 21 00 00 00 00 00 00 00 00     qQQq1!1!........
     1a0:	00 00 00 00 7a 5a 5a 7a 73 53 53 73 61 41 41 61     ....zZZzsSSsaAAa
     1b0:	77 57 57 77 32 40 32 40 00 00 00 00 00 00 00 00     wWWw2@2@........
     1c0:	63 43 43 63 78 58 58 78 64 44 44 64 65 45 45 65     cCCcxXXxdDDdeEEe
     1d0:	34 24 34 24 33 23 33 23 00 00 00 00 00 00 00 00     4$4$3#3#........
     1e0:	20 20 20 20 76 56 56 76 66 46 46 66 74 54 54 74         vVVvfFFftTTt
     1f0:	72 52 52 72 35 25 35 25 00 00 00 00 00 00 00 00     rRRr5%5%........
     200:	6e 4e 4e 6e 62 42 42 62 68 48 48 68 67 47 47 67     nNNnbBBbhHHhgGGg
     210:	79 59 59 79 36 5e 36 5e 00 00 00 00 00 00 00 00     yYYy6^6^........
     220:	2c 3c 2c 3c 6d 4d 4d 6d 6a 4a 4a 6a 75 55 55 75     ,<,<mMMmjJJjuUUu
     230:	37 26 37 26 38 2a 38 2a 00 00 00 00 00 00 00 00     7&7&8*8*........
     240:	2c 3c 2c 3c 6b 4b 4b 6b 69 49 49 69 6f 4f 4f 6f     ,<,<kKKkiIIioOOo
     250:	30 29 30 29 39 28 39 28 00 00 00 00 00 00 00 00     0)0)9(9(........
     260:	2e 3e 2e 3e 2f 3f 2f 3f 6c 4c 4c 6c 3b 3a 3b 3a     .>.>/?/?lLLl;:;:
     270:	70 50 50 70 2d 5f 2d 5f 00 00 00 00 00 00 00 00     pPPp-_-_........
     280:	00 00 00 00 27 22 27 22 00 00 00 00 5b 7b 5b 7b     ....'"'"....[{[{
     290:	3d 2b 3d 2b 00 00 00 00 00 00 00 00 00 00 00 00     =+=+............
     2a0:	00 00 00 00 0d 0d 0d 0d 5d 7d 5d 7d 00 00 00 00     ........]}]}....
     2b0:	5c 7c 5c 7c 00 00 00 00 00 00 00 00 00 00 00 00     \|\|............
     2c0:	3c 3c 3c 3c 00 00 00 00 00 00 00 00 00 00 00 00     <<<<............
     2d0:	00 00 00 00 08 08 08 08 00 00 00 00 00 00 00 00     ................
     2e0:	31 31 31 31 00 00 00 00 34 34 34 34 37 37 37 37     1111....44447777
	...
     2fc:	30 30 30 30 2e 2e 2e 2e 32 32 32 32 35 35 35 35     0000....22225555
     30c:	36 36 36 36 38 38 38 38 1b 1b 1b 1b 00 00 00 00     66668888........
     31c:	00 00 00 00 2b 2b 2b 2b 33 33 33 33 2d 2d 2d 2d     ....++++3333----
     32c:	2a 2a 2a 2a 39 39 39 39 00 00 00 00 00 00 00 00     ****9999........

0000033c <msg_welcome>:
     33c:	57 65 6c 63 6f 6d 65 20 74 6f 20 6e 73 74 42 41     Welcome to nstBA
     34c:	53 49 43 20 76 30 2e 32 00                          SIC v0.2.

00000355 <msg_ram_bytes>:
     355:	20 62 79 74 65 73 20 52 41 4d 00                     bytes RAM.

00000360 <msg_rom_bytes>:
     360:	20 62 79 74 65 73 20 52 4f 4d 00                     bytes ROM.

0000036b <msg_available>:
     36b:	20 62 79 74 65 73 20 61 76 61 69 6c 61 62 6c 65      bytes available
	...

0000037c <msg_break>:
     37c:	42 72 65 61 6b 21 00                                Break!.

00000383 <msg_ok>:
     383:	4f 4b 00                                            OK.

00000386 <err_msgxl>:
     386:	4c 65 66 74 20 00                                   Left .

0000038c <err_msgxr>:
     38c:	52 69 67 68 74 20 00                                Right .

00000393 <err_msg01>:
     393:	4e 6f 74 20 79 65 74 20 69 6d 70 6c 65 6d 65 6e     Not yet implemen
     3a3:	74 65 64 00                                         ted.

000003a7 <err_msg02>:
     3a7:	53 79 6e 74 61 78 20 65 72 72 6f 72 00              Syntax error.

000003b4 <err_msg03>:
     3b4:	53 74 61 63 6b 20 6f 76 65 72 66 6c 6f 77 00        Stack overflow.

000003c3 <err_msg04>:
     3c3:	55 6e 65 78 70 65 63 74 65 64 20 63 68 61 72 61     Unexpected chara
     3d3:	63 74 65 72 00                                      cter.

000003d8 <err_msg05_06>:
     3d8:	70 61 72 65 6e 74 68 65 73 69 73 20 6d 69 73 73     parenthesis miss
     3e8:	69 6e 67 00                                         ing.

000003ec <err_msg07>:
     3ec:	56 61 72 69 61 62 6c 65 20 65 78 70 65 63 74 65     Variable expecte
     3fc:	64 00                                               d.

000003fe <err_msg08>:
     3fe:	4a 75 6d 70 20 70 6f 69 6e 74 20 6e 6f 74 20 66     Jump point not f
     40e:	6f 75 6e 64 00                                      ound.

00000413 <err_msg09>:
     413:	49 6e 76 61 6c 69 64 20 6c 69 6e 65 20 6e 75 6d     Invalid line num
     423:	62 65 72 00                                         ber.

00000427 <err_msg0A>:
     427:	4f 70 65 72 61 74 6f 72 20 65 78 70 65 63 74 65     Operator expecte
     437:	64 00                                               d.

00000439 <err_msg0B>:
     439:	44 69 76 69 73 69 6f 6e 20 62 79 20 7a 65 72 6f     Division by zero
	...

0000044a <err_msg0C>:
     44a:	49 6e 76 61 6c 69 64 20 70 69 6e 20 5b 30 2e 2e     Invalid pin [0..
     45a:	37 5d 00                                            7].

0000045d <err_msg0D>:
     45d:	50 69 6e 20 49 2f 4f 20 65 72 72 6f 72 00           Pin I/O error.

0000046b <err_msg0E>:
     46b:	55 6e 6b 6e 6f 77 6e 20 66 75 6e 63 74 69 6f 6e     Unknown function
	...

0000047c <err_msg0F>:
     47c:	55 6e 6b 6e 6f 77 6e 20 63 6f 6d 6d 61 6e 64 00     Unknown command.

0000048c <err_msg10>:
     48c:	49 6e 76 61 6c 69 64 20 63 6f 6f 72 64 69 6e 61     Invalid coordina
     49c:	74 65 73 00                                         tes.

000004a0 <err_msg11>:
     4a0:	49 6e 76 61 6c 69 64 20 76 61 72 69 61 62 6c 65     Invalid variable
     4b0:	20 6e 61 6d 65 00                                    name.

000004b6 <err_msg12>:
     4b6:	45 78 70 65 63 74 65 64 20 62 79 74 65 20 5b 30     Expected byte [0
     4c6:	2e 2e 32 35 35 5d 00                                ..255].

000004cd <err_msg13>:
     4cd:	4f 75 74 20 6f 66 20 72 61 6e 67 65 00              Out of range.

000004da <err_msg14>:
     4da:	45 78 70 65 63 74 65 64 20 63 6f 6c 6f 72 20 5b     Expected color [
     4ea:	30 2e 2e 31 32 37 5d 00                             0..127].

000004f2 <commands>:
     4f2:	4c 49 53 d4 4e 45 d7 52 55 ce 4e 45 58 d4 4c 45     LIS.NE.RU.NEX.LE
     502:	d4 49 c6 47 4f 54 cf 4d 50 4c 41 d9 4d 53 54 4f     .I.GOT.MPLA.MSTO
     512:	d0 54 45 4d 50 cf 4d 55 53 49 c3 47 4f 53 55 c2     .TEMP.MUSI.GOSU.
     522:	52 45 54 55 52 ce 52 41 4e 44 4f 4d 49 5a c5 52     RETUR.RANDOMIZ.R
     532:	4e 44 53 45 45 c4 52 53 d4 43 4c d3 52 45 cd 46     NDSEE.RS.CL.RE.F
     542:	4f d2 49 4e 50 55 d4 42 45 45 d0 50 52 49 4e d4     O.INPU.BEE.PRIN.
     552:	4c 4f 43 41 54 c5 50 4f 4b c5 50 53 45 d4 53 54     LOCAT.POK.PSE.ST
     562:	4f d0 45 4e c4 4d 45 cd 50 45 ce 50 41 50 45 d2     O.EN.ME.PE.PAPE.
     572:	bf a3 a7 44 45 4c 41 d9 45 4c 49 53 d4 45 46 4f     ...DELA.ELIS.EFO
     582:	52 4d 41 d4 45 43 48 41 49 ce 45 53 41 56 c5 45     RMA.ECHAI.ESAV.E
     592:	4c 4f 41 c4 46 49 4c 45 d3 43 46 4f 52 4d 41 d4     LOA.FILE.CFORMA.
     5a2:	43 43 48 41 49 ce 43 53 41 56 c5 43 4c 4f 41 c4     CCHAI.CSAV.CLOA.
     5b2:	50 49 4e 44 49 d2 50 49 4e 44 57 52 49 54 c5 00     PINDI.PINDWRIT..

000005c2 <functions>:
     5c2:	50 45 45 cb 41 42 d3 52 4e c4 50 49 4e 44 52 45     PEE.AB.RN.PINDRE
     5d2:	41 c4 50 49 4e 41 52 45 41 c4 00                    A.PINAREA..

000005dd <relop_table>:
     5dd:	3e bd 3c be be bd 3c bd bc 21 bd 00                 >.<...<..!..

000005e9 <to_tab>:
     5e9:	54 cf 00                                            T..

000005ec <step_tab>:
     5ec:	53 54 45 d0 00                                      STE..

000005f1 <highlow_tab>:
     5f1:	48 49 47 c8 48 c9 4c 4f d7 4c cf 00 00              HIG.H.LO.L...

000005fe <__ctors_end>:
     5fe:	11 24       	eor	r1, r1
     600:	1f be       	out	0x3f, r1	; 63
     602:	cf ef       	ldi	r28, 0xFF	; 255
     604:	d0 e1       	ldi	r29, 0x10	; 16
     606:	de bf       	out	0x3e, r29	; 62
     608:	cd bf       	out	0x3d, r28	; 61

0000060a <__do_copy_data>:
     60a:	11 e0       	ldi	r17, 0x01	; 1
     60c:	a0 e0       	ldi	r26, 0x00	; 0
     60e:	b1 e0       	ldi	r27, 0x01	; 1
     610:	ee e2       	ldi	r30, 0x2E	; 46
     612:	f6 e3       	ldi	r31, 0x36	; 54
     614:	02 c0       	rjmp	.+4      	; 0x61a <.do_copy_data_start>

00000616 <.do_copy_data_loop>:
     616:	05 90       	lpm	r0, Z+
     618:	0d 92       	st	X+, r0

0000061a <.do_copy_data_start>:
     61a:	a6 33       	cpi	r26, 0x36	; 54
     61c:	b1 07       	cpc	r27, r17
     61e:	d9 f7       	brne	.-10     	; 0x616 <.do_copy_data_loop>

00000620 <__do_clear_bss>:
     620:	1d e0       	ldi	r17, 0x0D	; 13
     622:	a6 e3       	ldi	r26, 0x36	; 54
     624:	b1 e0       	ldi	r27, 0x01	; 1
     626:	01 c0       	rjmp	.+2      	; 0x62a <.do_clear_bss_start>

00000628 <.do_clear_bss_loop>:
     628:	1d 92       	st	X+, r1

0000062a <.do_clear_bss_start>:
     62a:	a8 3c       	cpi	r26, 0xC8	; 200
     62c:	b1 07       	cpc	r27, r17
     62e:	e1 f7       	brne	.-8      	; 0x628 <.do_clear_bss_loop>
     630:	0e 94 1a 16 	call	0x2c34	; 0x2c34 <main>
     634:	0c 94 15 1b 	jmp	0x362a	; 0x362a <_exit>

00000638 <__bad_interrupt>:
     638:	0c 94 00 00 	jmp	0	; 0x0 <__vectors>

0000063c <__vector_3>:
     63c:	1f 92       	push	r1
     63e:	0f 92       	push	r0
     640:	0f b6       	in	r0, 0x3f	; 63
     642:	0f 92       	push	r0
     644:	11 24       	eor	r1, r1
     646:	8f 93       	push	r24
     648:	81 e0       	ldi	r24, 0x01	; 1
     64a:	80 93 a5 0d 	sts	0x0DA5, r24
     64e:	ea 98       	cbi	0x1d, 2	; 29
     650:	8f 91       	pop	r24
     652:	0f 90       	pop	r0
     654:	0f be       	out	0x3f, r0	; 63
     656:	0f 90       	pop	r0
     658:	1f 90       	pop	r1
     65a:	18 95       	reti

0000065c <__vector_16>:
     65c:	1f 92       	push	r1
     65e:	0f 92       	push	r0
     660:	0f b6       	in	r0, 0x3f	; 63
     662:	0f 92       	push	r0
     664:	11 24       	eor	r1, r1
     666:	8f 93       	push	r24
     668:	8b e0       	ldi	r24, 0x0B	; 11
     66a:	80 93 8d 0d 	sts	0x0D8D, r24
     66e:	15 bc       	out	0x25, r1	; 37
     670:	8f 91       	pop	r24
     672:	0f 90       	pop	r0
     674:	0f be       	out	0x3f, r0	; 63
     676:	0f 90       	pop	r0
     678:	1f 90       	pop	r1
     67a:	18 95       	reti

0000067c <putchar_ser>:
     67c:	1f 93       	push	r17
     67e:	18 2f       	mov	r17, r24
     680:	8a 30       	cpi	r24, 0x0A	; 10
     682:	19 f4       	brne	.+6      	; 0x68a <putchar_ser+0xe>
     684:	8d e0       	ldi	r24, 0x0D	; 13
     686:	0e 94 3e 03 	call	0x67c	; 0x67c <putchar_ser>
     68a:	80 91 c0 00 	lds	r24, 0x00C0
     68e:	85 ff       	sbrs	r24, 5
     690:	fc cf       	rjmp	.-8      	; 0x68a <putchar_ser+0xe>
     692:	10 93 c6 00 	sts	0x00C6, r17
     696:	1f 91       	pop	r17
     698:	08 95       	ret

0000069a <getchar_ser>:
     69a:	80 91 c0 00 	lds	r24, 0x00C0
     69e:	87 ff       	sbrs	r24, 7
     6a0:	fc cf       	rjmp	.-8      	; 0x69a <getchar_ser>
     6a2:	80 91 c6 00 	lds	r24, 0x00C6
     6a6:	90 e0       	ldi	r25, 0x00	; 0
     6a8:	08 95       	ret

000006aa <getchar_phy>:
     6aa:	90 91 8a 0d 	lds	r25, 0x0D8A
     6ae:	99 23       	and	r25, r25
     6b0:	51 f4       	brne	.+20     	; 0x6c6 <getchar_phy+0x1c>
     6b2:	28 e8       	ldi	r18, 0x88	; 136
     6b4:	33 e1       	ldi	r19, 0x13	; 19
     6b6:	8f e0       	ldi	r24, 0x0F	; 15
     6b8:	90 e0       	ldi	r25, 0x00	; 0
     6ba:	f9 01       	movw	r30, r18
     6bc:	31 97       	sbiw	r30, 0x01	; 1
     6be:	f1 f7       	brne	.-4      	; 0x6bc <getchar_phy+0x12>
     6c0:	01 97       	sbiw	r24, 0x01	; 1
     6c2:	d9 f7       	brne	.-10     	; 0x6ba <getchar_phy+0x10>
     6c4:	f8 cf       	rjmp	.-16     	; 0x6b6 <getchar_phy+0xc>
     6c6:	80 91 98 0d 	lds	r24, 0x0D98
     6ca:	e8 2f       	mov	r30, r24
     6cc:	f0 e0       	ldi	r31, 0x00	; 0
     6ce:	e1 55       	subi	r30, 0x51	; 81
     6d0:	f2 4f       	sbci	r31, 0xF2	; 242
     6d2:	e0 81       	ld	r30, Z
     6d4:	8f 5f       	subi	r24, 0xFF	; 255
     6d6:	80 93 98 0d 	sts	0x0D98, r24
     6da:	91 50       	subi	r25, 0x01	; 1
     6dc:	90 93 8a 0d 	sts	0x0D8A, r25
     6e0:	80 31       	cpi	r24, 0x10	; 16
     6e2:	11 f4       	brne	.+4      	; 0x6e8 <getchar_phy+0x3e>
     6e4:	10 92 98 0d 	sts	0x0D98, r1
     6e8:	8e 2f       	mov	r24, r30
     6ea:	90 e0       	ldi	r25, 0x00	; 0
     6ec:	08 95       	ret

000006ee <send_to_apu>:
     6ee:	88 b9       	out	0x08, r24	; 8
     6f0:	4c 99       	sbic	0x09, 4	; 9
     6f2:	fe cf       	rjmp	.-4      	; 0x6f0 <send_to_apu+0x2>
     6f4:	5d 9a       	sbi	0x0b, 5	; 11
     6f6:	4c 9b       	sbis	0x09, 4	; 9
     6f8:	fe cf       	rjmp	.-4      	; 0x6f6 <send_to_apu+0x8>
     6fa:	5d 98       	cbi	0x0b, 5	; 11
     6fc:	08 95       	ret

000006fe <get_note>:
     6fe:	e0 91 8e 0d 	lds	r30, 0x0D8E
     702:	f0 91 8f 0d 	lds	r31, 0x0D8F
     706:	df 01       	movw	r26, r30
     708:	11 96       	adiw	r26, 0x01	; 1
     70a:	b0 93 8f 0d 	sts	0x0D8F, r27
     70e:	a0 93 8e 0d 	sts	0x0D8E, r26
     712:	81 81       	ldd	r24, Z+1	; 0x01
     714:	80 35       	cpi	r24, 0x50	; 80
     716:	09 f4       	brne	.+2      	; 0x71a <get_note+0x1c>
     718:	95 c0       	rjmp	.+298    	; 0x844 <get_note+0x146>
     71a:	81 35       	cpi	r24, 0x51	; 81
     71c:	b8 f4       	brcc	.+46     	; 0x74c <get_note+0x4e>
     71e:	84 34       	cpi	r24, 0x44	; 68
     720:	09 f4       	brne	.+2      	; 0x724 <get_note+0x26>
     722:	96 c0       	rjmp	.+300    	; 0x850 <get_note+0x152>
     724:	85 34       	cpi	r24, 0x45	; 69
     726:	48 f4       	brcc	.+18     	; 0x73a <get_note+0x3c>
     728:	82 34       	cpi	r24, 0x42	; 66
     72a:	09 f4       	brne	.+2      	; 0x72e <get_note+0x30>
     72c:	78 c0       	rjmp	.+240    	; 0x81e <get_note+0x120>
     72e:	83 34       	cpi	r24, 0x43	; 67
     730:	40 f5       	brcc	.+80     	; 0x782 <get_note+0x84>
     732:	81 34       	cpi	r24, 0x41	; 65
     734:	09 f0       	breq	.+2      	; 0x738 <get_note+0x3a>
     736:	88 c0       	rjmp	.+272    	; 0x848 <get_note+0x14a>
     738:	22 c0       	rjmp	.+68     	; 0x77e <get_note+0x80>
     73a:	86 34       	cpi	r24, 0x46	; 70
     73c:	09 f4       	brne	.+2      	; 0x740 <get_note+0x42>
     73e:	49 c0       	rjmp	.+146    	; 0x7d2 <get_note+0xd4>
     740:	86 34       	cpi	r24, 0x46	; 70
     742:	90 f1       	brcs	.+100    	; 0x7a8 <get_note+0xaa>
     744:	87 34       	cpi	r24, 0x47	; 71
     746:	09 f0       	breq	.+2      	; 0x74a <get_note+0x4c>
     748:	7f c0       	rjmp	.+254    	; 0x848 <get_note+0x14a>
     74a:	56 c0       	rjmp	.+172    	; 0x7f8 <get_note+0xfa>
     74c:	84 36       	cpi	r24, 0x64	; 100
     74e:	09 f4       	brne	.+2      	; 0x752 <get_note+0x54>
     750:	7f c0       	rjmp	.+254    	; 0x850 <get_note+0x152>
     752:	85 36       	cpi	r24, 0x65	; 101
     754:	48 f4       	brcc	.+18     	; 0x768 <get_note+0x6a>
     756:	82 36       	cpi	r24, 0x62	; 98
     758:	09 f4       	brne	.+2      	; 0x75c <get_note+0x5e>
     75a:	61 c0       	rjmp	.+194    	; 0x81e <get_note+0x120>
     75c:	83 36       	cpi	r24, 0x63	; 99
     75e:	88 f4       	brcc	.+34     	; 0x782 <get_note+0x84>
     760:	81 36       	cpi	r24, 0x61	; 97
     762:	09 f0       	breq	.+2      	; 0x766 <get_note+0x68>
     764:	71 c0       	rjmp	.+226    	; 0x848 <get_note+0x14a>
     766:	0b c0       	rjmp	.+22     	; 0x77e <get_note+0x80>
     768:	86 36       	cpi	r24, 0x66	; 102
     76a:	99 f1       	breq	.+102    	; 0x7d2 <get_note+0xd4>
     76c:	86 36       	cpi	r24, 0x66	; 102
     76e:	e0 f0       	brcs	.+56     	; 0x7a8 <get_note+0xaa>
     770:	87 36       	cpi	r24, 0x67	; 103
     772:	09 f4       	brne	.+2      	; 0x776 <get_note+0x78>
     774:	41 c0       	rjmp	.+130    	; 0x7f8 <get_note+0xfa>
     776:	80 37       	cpi	r24, 0x70	; 112
     778:	09 f0       	breq	.+2      	; 0x77c <get_note+0x7e>
     77a:	66 c0       	rjmp	.+204    	; 0x848 <get_note+0x14a>
     77c:	63 c0       	rjmp	.+198    	; 0x844 <get_note+0x146>
     77e:	8a e0       	ldi	r24, 0x0A	; 10
     780:	08 95       	ret
     782:	11 96       	adiw	r26, 0x01	; 1
     784:	b0 93 8f 0d 	sts	0x0D8F, r27
     788:	a0 93 8e 0d 	sts	0x0D8E, r26
     78c:	11 97       	sbiw	r26, 0x01	; 1
     78e:	11 96       	adiw	r26, 0x01	; 1
     790:	8c 91       	ld	r24, X
     792:	11 97       	sbiw	r26, 0x01	; 1
     794:	83 32       	cpi	r24, 0x23	; 35
     796:	11 f4       	brne	.+4      	; 0x79c <get_note+0x9e>
     798:	82 e0       	ldi	r24, 0x02	; 2
     79a:	08 95       	ret
     79c:	b0 93 8f 0d 	sts	0x0D8F, r27
     7a0:	a0 93 8e 0d 	sts	0x0D8E, r26
     7a4:	81 e0       	ldi	r24, 0x01	; 1
     7a6:	08 95       	ret
     7a8:	11 96       	adiw	r26, 0x01	; 1
     7aa:	b0 93 8f 0d 	sts	0x0D8F, r27
     7ae:	a0 93 8e 0d 	sts	0x0D8E, r26
     7b2:	11 97       	sbiw	r26, 0x01	; 1
     7b4:	11 96       	adiw	r26, 0x01	; 1
     7b6:	8c 91       	ld	r24, X
     7b8:	11 97       	sbiw	r26, 0x01	; 1
     7ba:	82 34       	cpi	r24, 0x42	; 66
     7bc:	09 f4       	brne	.+2      	; 0x7c0 <get_note+0xc2>
     7be:	4a c0       	rjmp	.+148    	; 0x854 <get_note+0x156>
     7c0:	82 36       	cpi	r24, 0x62	; 98
     7c2:	09 f4       	brne	.+2      	; 0x7c6 <get_note+0xc8>
     7c4:	47 c0       	rjmp	.+142    	; 0x854 <get_note+0x156>
     7c6:	b0 93 8f 0d 	sts	0x0D8F, r27
     7ca:	a0 93 8e 0d 	sts	0x0D8E, r26
     7ce:	85 e0       	ldi	r24, 0x05	; 5
     7d0:	08 95       	ret
     7d2:	11 96       	adiw	r26, 0x01	; 1
     7d4:	b0 93 8f 0d 	sts	0x0D8F, r27
     7d8:	a0 93 8e 0d 	sts	0x0D8E, r26
     7dc:	11 97       	sbiw	r26, 0x01	; 1
     7de:	11 96       	adiw	r26, 0x01	; 1
     7e0:	8c 91       	ld	r24, X
     7e2:	11 97       	sbiw	r26, 0x01	; 1
     7e4:	83 32       	cpi	r24, 0x23	; 35
     7e6:	11 f4       	brne	.+4      	; 0x7ec <get_note+0xee>
     7e8:	87 e0       	ldi	r24, 0x07	; 7
     7ea:	08 95       	ret
     7ec:	b0 93 8f 0d 	sts	0x0D8F, r27
     7f0:	a0 93 8e 0d 	sts	0x0D8E, r26
     7f4:	86 e0       	ldi	r24, 0x06	; 6
     7f6:	08 95       	ret
     7f8:	11 96       	adiw	r26, 0x01	; 1
     7fa:	b0 93 8f 0d 	sts	0x0D8F, r27
     7fe:	a0 93 8e 0d 	sts	0x0D8E, r26
     802:	11 97       	sbiw	r26, 0x01	; 1
     804:	11 96       	adiw	r26, 0x01	; 1
     806:	8c 91       	ld	r24, X
     808:	11 97       	sbiw	r26, 0x01	; 1
     80a:	83 32       	cpi	r24, 0x23	; 35
     80c:	11 f4       	brne	.+4      	; 0x812 <get_note+0x114>
     80e:	89 e0       	ldi	r24, 0x09	; 9
     810:	08 95       	ret
     812:	b0 93 8f 0d 	sts	0x0D8F, r27
     816:	a0 93 8e 0d 	sts	0x0D8E, r26
     81a:	88 e0       	ldi	r24, 0x08	; 8
     81c:	08 95       	ret
     81e:	11 96       	adiw	r26, 0x01	; 1
     820:	b0 93 8f 0d 	sts	0x0D8F, r27
     824:	a0 93 8e 0d 	sts	0x0D8E, r26
     828:	11 97       	sbiw	r26, 0x01	; 1
     82a:	11 96       	adiw	r26, 0x01	; 1
     82c:	8c 91       	ld	r24, X
     82e:	11 97       	sbiw	r26, 0x01	; 1
     830:	82 34       	cpi	r24, 0x42	; 66
     832:	91 f0       	breq	.+36     	; 0x858 <get_note+0x15a>
     834:	82 36       	cpi	r24, 0x62	; 98
     836:	81 f0       	breq	.+32     	; 0x858 <get_note+0x15a>
     838:	b0 93 8f 0d 	sts	0x0D8F, r27
     83c:	a0 93 8e 0d 	sts	0x0D8E, r26
     840:	8c e0       	ldi	r24, 0x0C	; 12
     842:	08 95       	ret
     844:	8d e0       	ldi	r24, 0x0D	; 13
     846:	08 95       	ret
     848:	84 e0       	ldi	r24, 0x04	; 4
     84a:	80 93 bf 0d 	sts	0x0DBF, r24
     84e:	08 95       	ret
     850:	83 e0       	ldi	r24, 0x03	; 3
     852:	08 95       	ret
     854:	84 e0       	ldi	r24, 0x04	; 4
     856:	08 95       	ret
     858:	8b e0       	ldi	r24, 0x0B	; 11
     85a:	08 95       	ret

0000085c <get_octave>:
     85c:	e0 91 8e 0d 	lds	r30, 0x0D8E
     860:	f0 91 8f 0d 	lds	r31, 0x0D8F
     864:	31 96       	adiw	r30, 0x01	; 1
     866:	f0 93 8f 0d 	sts	0x0D8F, r31
     86a:	e0 93 8e 0d 	sts	0x0D8E, r30
     86e:	31 97       	sbiw	r30, 0x01	; 1
     870:	91 81       	ldd	r25, Z+1	; 0x01
     872:	89 2f       	mov	r24, r25
     874:	82 53       	subi	r24, 0x32	; 50
     876:	86 30       	cpi	r24, 0x06	; 6
     878:	10 f4       	brcc	.+4      	; 0x87e <get_octave+0x22>
     87a:	8e 5f       	subi	r24, 0xFE	; 254
     87c:	08 95       	ret
     87e:	92 32       	cpi	r25, 0x22	; 34
     880:	11 f0       	breq	.+4      	; 0x886 <get_octave+0x2a>
     882:	97 32       	cpi	r25, 0x27	; 39
     884:	31 f4       	brne	.+12     	; 0x892 <get_octave+0x36>
     886:	f0 93 8f 0d 	sts	0x0D8F, r31
     88a:	e0 93 8e 0d 	sts	0x0D8E, r30
     88e:	80 e0       	ldi	r24, 0x00	; 0
     890:	08 95       	ret
     892:	84 e0       	ldi	r24, 0x04	; 4
     894:	80 93 bf 0d 	sts	0x0DBF, r24
     898:	80 e0       	ldi	r24, 0x00	; 0
     89a:	08 95       	ret

0000089c <get_duration>:
     89c:	e0 91 8e 0d 	lds	r30, 0x0D8E
     8a0:	f0 91 8f 0d 	lds	r31, 0x0D8F
     8a4:	31 96       	adiw	r30, 0x01	; 1
     8a6:	f0 93 8f 0d 	sts	0x0D8F, r31
     8aa:	e0 93 8e 0d 	sts	0x0D8E, r30
     8ae:	31 97       	sbiw	r30, 0x01	; 1
     8b0:	91 81       	ldd	r25, Z+1	; 0x01
     8b2:	89 2f       	mov	r24, r25
     8b4:	81 53       	subi	r24, 0x31	; 49
     8b6:	88 30       	cpi	r24, 0x08	; 8
     8b8:	10 f4       	brcc	.+4      	; 0x8be <get_duration+0x22>
     8ba:	8f 5f       	subi	r24, 0xFF	; 255
     8bc:	08 95       	ret
     8be:	84 e0       	ldi	r24, 0x04	; 4
     8c0:	80 93 bf 0d 	sts	0x0DBF, r24
     8c4:	80 e0       	ldi	r24, 0x00	; 0
     8c6:	08 95       	ret

000008c8 <get_effect>:
     8c8:	e0 91 8e 0d 	lds	r30, 0x0D8E
     8cc:	f0 91 8f 0d 	lds	r31, 0x0D8F
     8d0:	31 96       	adiw	r30, 0x01	; 1
     8d2:	f0 93 8f 0d 	sts	0x0D8F, r31
     8d6:	e0 93 8e 0d 	sts	0x0D8E, r30
     8da:	31 97       	sbiw	r30, 0x01	; 1
     8dc:	81 81       	ldd	r24, Z+1	; 0x01
     8de:	8d 32       	cpi	r24, 0x2D	; 45
     8e0:	29 f0       	breq	.+10     	; 0x8ec <get_effect+0x24>
     8e2:	8d 33       	cpi	r24, 0x3D	; 61
     8e4:	29 f0       	breq	.+10     	; 0x8f0 <get_effect+0x28>
     8e6:	8b 32       	cpi	r24, 0x2B	; 43
     8e8:	39 f4       	brne	.+14     	; 0x8f8 <get_effect+0x30>
     8ea:	04 c0       	rjmp	.+8      	; 0x8f4 <get_effect+0x2c>
     8ec:	82 e0       	ldi	r24, 0x02	; 2
     8ee:	08 95       	ret
     8f0:	83 e0       	ldi	r24, 0x03	; 3
     8f2:	08 95       	ret
     8f4:	81 e0       	ldi	r24, 0x01	; 1
     8f6:	08 95       	ret
     8f8:	f0 93 8f 0d 	sts	0x0D8F, r31
     8fc:	e0 93 8e 0d 	sts	0x0D8E, r30
     900:	80 e0       	ldi	r24, 0x00	; 0
     902:	08 95       	ret

00000904 <parse_channel>:
     904:	e0 91 8e 0d 	lds	r30, 0x0D8E
     908:	f0 91 8f 0d 	lds	r31, 0x0D8F
     90c:	31 96       	adiw	r30, 0x01	; 1
     90e:	f0 93 8f 0d 	sts	0x0D8F, r31
     912:	e0 93 8e 0d 	sts	0x0D8E, r30
     916:	31 97       	sbiw	r30, 0x01	; 1
     918:	91 81       	ldd	r25, Z+1	; 0x01
     91a:	89 2f       	mov	r24, r25
     91c:	81 53       	subi	r24, 0x31	; 49
     91e:	84 30       	cpi	r24, 0x04	; 4
     920:	48 f4       	brcc	.+18     	; 0x934 <parse_channel+0x30>
     922:	90 53       	subi	r25, 0x30	; 48
     924:	98 b9       	out	0x08, r25	; 8
     926:	4c 99       	sbic	0x09, 4	; 9
     928:	fe cf       	rjmp	.-4      	; 0x926 <parse_channel+0x22>
     92a:	5d 9a       	sbi	0x0b, 5	; 11
     92c:	4c 9b       	sbis	0x09, 4	; 9
     92e:	fe cf       	rjmp	.-4      	; 0x92c <parse_channel+0x28>
     930:	5d 98       	cbi	0x0b, 5	; 11
     932:	08 95       	ret
     934:	84 e0       	ldi	r24, 0x04	; 4
     936:	80 93 bf 0d 	sts	0x0DBF, r24
     93a:	08 95       	ret

0000093c <parse_notes>:
     93c:	ef 92       	push	r14
     93e:	ff 92       	push	r15
     940:	0f 93       	push	r16
     942:	1f 93       	push	r17
     944:	8c e0       	ldi	r24, 0x0C	; 12
     946:	e8 2e       	mov	r14, r24
     948:	0e 94 2e 04 	call	0x85c	; 0x85c <get_octave>
     94c:	f8 2e       	mov	r15, r24
     94e:	88 23       	and	r24, r24
     950:	09 f4       	brne	.+2      	; 0x954 <parse_notes+0x18>
     952:	2f c0       	rjmp	.+94     	; 0x9b2 <parse_notes+0x76>
     954:	0e 94 7f 03 	call	0x6fe	; 0x6fe <get_note>
     958:	18 2f       	mov	r17, r24
     95a:	0e 94 4e 04 	call	0x89c	; 0x89c <get_duration>
     95e:	08 2f       	mov	r16, r24
     960:	0e 94 64 04 	call	0x8c8	; 0x8c8 <get_effect>
     964:	48 2f       	mov	r20, r24
     966:	80 2f       	mov	r24, r16
     968:	81 2b       	or	r24, r17
     96a:	84 2b       	or	r24, r20
     96c:	11 f1       	breq	.+68     	; 0x9b2 <parse_notes+0x76>
     96e:	1d 30       	cpi	r17, 0x0D	; 13
     970:	11 f4       	brne	.+4      	; 0x976 <parse_notes+0x3a>
     972:	80 e9       	ldi	r24, 0x90	; 144
     974:	09 c0       	rjmp	.+18     	; 0x988 <parse_notes+0x4c>
     976:	81 2f       	mov	r24, r17
     978:	90 e0       	ldi	r25, 0x00	; 0
     97a:	49 97       	sbiw	r24, 0x19	; 25
     97c:	fe 9c       	mul	r15, r14
     97e:	90 01       	movw	r18, r0
     980:	11 24       	eor	r1, r1
     982:	82 0f       	add	r24, r18
     984:	93 1f       	adc	r25, r19
     986:	88 0f       	add	r24, r24
     988:	01 50       	subi	r16, 0x01	; 1
     98a:	42 95       	swap	r20
     98c:	44 0f       	add	r20, r20
     98e:	44 0f       	add	r20, r20
     990:	40 7c       	andi	r20, 0xC0	; 192
     992:	40 0f       	add	r20, r16
     994:	48 b9       	out	0x08, r20	; 8
     996:	4c 99       	sbic	0x09, 4	; 9
     998:	fe cf       	rjmp	.-4      	; 0x996 <parse_notes+0x5a>
     99a:	5d 9a       	sbi	0x0b, 5	; 11
     99c:	4c 9b       	sbis	0x09, 4	; 9
     99e:	fe cf       	rjmp	.-4      	; 0x99c <parse_notes+0x60>
     9a0:	5d 98       	cbi	0x0b, 5	; 11
     9a2:	88 b9       	out	0x08, r24	; 8
     9a4:	4c 99       	sbic	0x09, 4	; 9
     9a6:	fe cf       	rjmp	.-4      	; 0x9a4 <parse_notes+0x68>
     9a8:	5d 9a       	sbi	0x0b, 5	; 11
     9aa:	4c 9b       	sbis	0x09, 4	; 9
     9ac:	fe cf       	rjmp	.-4      	; 0x9aa <parse_notes+0x6e>
     9ae:	5d 98       	cbi	0x0b, 5	; 11
     9b0:	cb cf       	rjmp	.-106    	; 0x948 <parse_notes+0xc>
     9b2:	1f 91       	pop	r17
     9b4:	0f 91       	pop	r16
     9b6:	ff 90       	pop	r15
     9b8:	ef 90       	pop	r14
     9ba:	08 95       	ret

000009bc <do_beep>:
     9bc:	e8 98       	cbi	0x1d, 0	; 29
     9be:	34 e6       	ldi	r19, 0x64	; 100
     9c0:	46 e0       	ldi	r20, 0x06	; 6
     9c2:	28 98       	cbi	0x05, 0	; 5
     9c4:	8e ee       	ldi	r24, 0xEE	; 238
     9c6:	92 e0       	ldi	r25, 0x02	; 2
     9c8:	24 2f       	mov	r18, r20
     9ca:	2a 95       	dec	r18
     9cc:	f1 f7       	brne	.-4      	; 0x9ca <do_beep+0xe>
     9ce:	01 97       	sbiw	r24, 0x01	; 1
     9d0:	d9 f7       	brne	.-10     	; 0x9c8 <do_beep+0xc>
     9d2:	28 9a       	sbi	0x05, 0	; 5
     9d4:	84 ef       	ldi	r24, 0xF4	; 244
     9d6:	91 e0       	ldi	r25, 0x01	; 1
     9d8:	24 2f       	mov	r18, r20
     9da:	2a 95       	dec	r18
     9dc:	f1 f7       	brne	.-4      	; 0x9da <do_beep+0x1e>
     9de:	01 97       	sbiw	r24, 0x01	; 1
     9e0:	d9 f7       	brne	.-10     	; 0x9d8 <do_beep+0x1c>
     9e2:	31 50       	subi	r19, 0x01	; 1
     9e4:	71 f7       	brne	.-36     	; 0x9c2 <do_beep+0x6>
     9e6:	e8 9a       	sbi	0x1d, 0	; 29
     9e8:	08 95       	ret

000009ea <kb_to_buffer>:
     9ea:	28 2f       	mov	r18, r24
     9ec:	90 91 8a 0d 	lds	r25, 0x0D8A
     9f0:	90 31       	cpi	r25, 0x10	; 16
     9f2:	90 f4       	brcc	.+36     	; 0xa18 <kb_to_buffer+0x2e>
     9f4:	80 91 a2 0d 	lds	r24, 0x0DA2
     9f8:	e8 2f       	mov	r30, r24
     9fa:	f0 e0       	ldi	r31, 0x00	; 0
     9fc:	e1 55       	subi	r30, 0x51	; 81
     9fe:	f2 4f       	sbci	r31, 0xF2	; 242
     a00:	20 83       	st	Z, r18
     a02:	8f 5f       	subi	r24, 0xFF	; 255
     a04:	80 93 a2 0d 	sts	0x0DA2, r24
     a08:	9f 5f       	subi	r25, 0xFF	; 255
     a0a:	90 93 8a 0d 	sts	0x0D8A, r25
     a0e:	80 31       	cpi	r24, 0x10	; 16
     a10:	29 f4       	brne	.+10     	; 0xa1c <kb_to_buffer+0x32>
     a12:	10 92 a2 0d 	sts	0x0DA2, r1
     a16:	08 95       	ret
     a18:	0e 94 de 04 	call	0x9bc	; 0x9bc <do_beep>
     a1c:	08 95       	ret

00000a1e <push_byte>:
     a1e:	e0 91 a6 0d 	lds	r30, 0x0DA6
     a22:	f0 91 a7 0d 	lds	r31, 0x0DA7
     a26:	31 97       	sbiw	r30, 0x01	; 1
     a28:	f0 93 a7 0d 	sts	0x0DA7, r31
     a2c:	e0 93 a6 0d 	sts	0x0DA6, r30
     a30:	80 83       	st	Z, r24
     a32:	08 95       	ret

00000a34 <pop_byte>:
     a34:	e0 91 a6 0d 	lds	r30, 0x0DA6
     a38:	f0 91 a7 0d 	lds	r31, 0x0DA7
     a3c:	81 91       	ld	r24, Z+
     a3e:	f0 93 a7 0d 	sts	0x0DA7, r31
     a42:	e0 93 a6 0d 	sts	0x0DA6, r30
     a46:	08 95       	ret

00000a48 <find_line>:
     a48:	e0 91 ab 0d 	lds	r30, 0x0DAB
     a4c:	f0 91 ac 0d 	lds	r31, 0x0DAC
     a50:	40 91 a0 0d 	lds	r20, 0x0DA0
     a54:	50 91 a1 0d 	lds	r21, 0x0DA1
     a58:	20 91 8b 0d 	lds	r18, 0x0D8B
     a5c:	30 91 8c 0d 	lds	r19, 0x0D8C
     a60:	e4 17       	cp	r30, r20
     a62:	f5 07       	cpc	r31, r21
     a64:	49 f0       	breq	.+18     	; 0xa78 <find_line+0x30>
     a66:	80 81       	ld	r24, Z
     a68:	91 81       	ldd	r25, Z+1	; 0x01
     a6a:	82 17       	cp	r24, r18
     a6c:	93 07       	cpc	r25, r19
     a6e:	20 f4       	brcc	.+8      	; 0xa78 <find_line+0x30>
     a70:	82 81       	ldd	r24, Z+2	; 0x02
     a72:	e8 0f       	add	r30, r24
     a74:	f1 1d       	adc	r31, r1
     a76:	f4 cf       	rjmp	.-24     	; 0xa60 <find_line+0x18>
     a78:	cf 01       	movw	r24, r30
     a7a:	08 95       	ret

00000a7c <ignorespace>:
     a7c:	05 c0       	rjmp	.+10     	; 0xa88 <ignorespace+0xc>
     a7e:	31 96       	adiw	r30, 0x01	; 1
     a80:	f0 93 8f 0d 	sts	0x0D8F, r31
     a84:	e0 93 8e 0d 	sts	0x0D8E, r30
     a88:	e0 91 8e 0d 	lds	r30, 0x0D8E
     a8c:	f0 91 8f 0d 	lds	r31, 0x0D8F
     a90:	80 81       	ld	r24, Z
     a92:	80 32       	cpi	r24, 0x20	; 32
     a94:	a1 f3       	breq	.-24     	; 0xa7e <ignorespace+0x2>
     a96:	89 30       	cpi	r24, 0x09	; 9
     a98:	91 f3       	breq	.-28     	; 0xa7e <ignorespace+0x2>
     a9a:	08 95       	ret

00000a9c <scantable>:
     a9c:	cf 93       	push	r28
     a9e:	df 93       	push	r29
     aa0:	ec 01       	movw	r28, r24
     aa2:	10 92 9f 0d 	sts	0x0D9F, r1
     aa6:	40 e0       	ldi	r20, 0x00	; 0
     aa8:	50 e0       	ldi	r21, 0x00	; 0
     aaa:	fe 01       	movw	r30, r28
     aac:	24 91       	lpm	r18, Z+
     aae:	22 23       	and	r18, r18
     ab0:	79 f1       	breq	.+94     	; 0xb10 <scantable+0x74>
     ab2:	60 91 8e 0d 	lds	r22, 0x0D8E
     ab6:	70 91 8f 0d 	lds	r23, 0x0D8F
     aba:	fb 01       	movw	r30, r22
     abc:	e4 0f       	add	r30, r20
     abe:	f5 1f       	adc	r31, r21
     ac0:	80 81       	ld	r24, Z
     ac2:	82 17       	cp	r24, r18
     ac4:	21 f4       	brne	.+8      	; 0xace <scantable+0x32>
     ac6:	4f 5f       	subi	r20, 0xFF	; 255
     ac8:	5f 4f       	sbci	r21, 0xFF	; 255
     aca:	21 96       	adiw	r28, 0x01	; 1
     acc:	ee cf       	rjmp	.-36     	; 0xaaa <scantable+0xe>
     ace:	90 e0       	ldi	r25, 0x00	; 0
     ad0:	80 58       	subi	r24, 0x80	; 128
     ad2:	9f 4f       	sbci	r25, 0xFF	; 255
     ad4:	30 e0       	ldi	r19, 0x00	; 0
     ad6:	82 17       	cp	r24, r18
     ad8:	93 07       	cpc	r25, r19
     ada:	61 f4       	brne	.+24     	; 0xaf4 <scantable+0x58>
     adc:	4f 5f       	subi	r20, 0xFF	; 255
     ade:	5f 4f       	sbci	r21, 0xFF	; 255
     ae0:	64 0f       	add	r22, r20
     ae2:	75 1f       	adc	r23, r21
     ae4:	70 93 8f 0d 	sts	0x0D8F, r23
     ae8:	60 93 8e 0d 	sts	0x0D8E, r22
     aec:	0e 94 3e 05 	call	0xa7c	; 0xa7c <ignorespace>
     af0:	0f c0       	rjmp	.+30     	; 0xb10 <scantable+0x74>
     af2:	ef 01       	movw	r28, r30
     af4:	fe 01       	movw	r30, r28
     af6:	84 91       	lpm	r24, Z+
     af8:	31 96       	adiw	r30, 0x01	; 1
     afa:	87 ff       	sbrs	r24, 7
     afc:	fa cf       	rjmp	.-12     	; 0xaf2 <scantable+0x56>
     afe:	ef 01       	movw	r28, r30
     b00:	80 91 9f 0d 	lds	r24, 0x0D9F
     b04:	8f 5f       	subi	r24, 0xFF	; 255
     b06:	80 93 9f 0d 	sts	0x0D9F, r24
     b0a:	0e 94 3e 05 	call	0xa7c	; 0xa7c <ignorespace>
     b0e:	cb cf       	rjmp	.-106    	; 0xaa6 <scantable+0xa>
     b10:	df 91       	pop	r29
     b12:	cf 91       	pop	r28
     b14:	08 95       	ret

00000b16 <uppercase>:
     b16:	e0 91 a0 0d 	lds	r30, 0x0DA0
     b1a:	f0 91 a1 0d 	lds	r31, 0x0DA1
     b1e:	90 e0       	ldi	r25, 0x00	; 0
     b20:	13 c0       	rjmp	.+38     	; 0xb48 <uppercase+0x32>
     b22:	89 17       	cp	r24, r25
     b24:	11 f4       	brne	.+4      	; 0xb2a <uppercase+0x14>
     b26:	90 e0       	ldi	r25, 0x00	; 0
     b28:	0e c0       	rjmp	.+28     	; 0xb46 <uppercase+0x30>
     b2a:	82 32       	cpi	r24, 0x22	; 34
     b2c:	59 f0       	breq	.+22     	; 0xb44 <uppercase+0x2e>
     b2e:	87 32       	cpi	r24, 0x27	; 39
     b30:	49 f0       	breq	.+18     	; 0xb44 <uppercase+0x2e>
     b32:	99 23       	and	r25, r25
     b34:	41 f4       	brne	.+16     	; 0xb46 <uppercase+0x30>
     b36:	81 36       	cpi	r24, 0x61	; 97
     b38:	30 f0       	brcs	.+12     	; 0xb46 <uppercase+0x30>
     b3a:	8b 37       	cpi	r24, 0x7B	; 123
     b3c:	20 f4       	brcc	.+8      	; 0xb46 <uppercase+0x30>
     b3e:	80 52       	subi	r24, 0x20	; 32
     b40:	82 83       	std	Z+2, r24	; 0x02
     b42:	01 c0       	rjmp	.+2      	; 0xb46 <uppercase+0x30>
     b44:	98 2f       	mov	r25, r24
     b46:	31 96       	adiw	r30, 0x01	; 1
     b48:	82 81       	ldd	r24, Z+2	; 0x02
     b4a:	8a 30       	cpi	r24, 0x0A	; 10
     b4c:	51 f7       	brne	.-44     	; 0xb22 <uppercase+0xc>
     b4e:	08 95       	ret

00000b50 <isValidFnChar>:
     b50:	98 2f       	mov	r25, r24
     b52:	80 53       	subi	r24, 0x30	; 48
     b54:	8a 30       	cpi	r24, 0x0A	; 10
     b56:	80 f0       	brcs	.+32     	; 0xb78 <isValidFnChar+0x28>
     b58:	81 51       	subi	r24, 0x11	; 17
     b5a:	8a 31       	cpi	r24, 0x1A	; 26
     b5c:	68 f0       	brcs	.+26     	; 0xb78 <isValidFnChar+0x28>
     b5e:	80 52       	subi	r24, 0x20	; 32
     b60:	8a 31       	cpi	r24, 0x1A	; 26
     b62:	50 f0       	brcs	.+20     	; 0xb78 <isValidFnChar+0x28>
     b64:	9f 35       	cpi	r25, 0x5F	; 95
     b66:	41 f0       	breq	.+16     	; 0xb78 <isValidFnChar+0x28>
     b68:	9b 32       	cpi	r25, 0x2B	; 43
     b6a:	31 f0       	breq	.+12     	; 0xb78 <isValidFnChar+0x28>
     b6c:	9e 32       	cpi	r25, 0x2E	; 46
     b6e:	21 f0       	breq	.+8      	; 0xb78 <isValidFnChar+0x28>
     b70:	20 e0       	ldi	r18, 0x00	; 0
     b72:	30 e0       	ldi	r19, 0x00	; 0
     b74:	9e 37       	cpi	r25, 0x7E	; 126
     b76:	11 f4       	brne	.+4      	; 0xb7c <isValidFnChar+0x2c>
     b78:	21 e0       	ldi	r18, 0x01	; 1
     b7a:	30 e0       	ldi	r19, 0x00	; 0
     b7c:	c9 01       	movw	r24, r18
     b7e:	08 95       	ret

00000b80 <filenameWord>:
     b80:	ff 92       	push	r15
     b82:	0f 93       	push	r16
     b84:	1f 93       	push	r17
     b86:	cf 93       	push	r28
     b88:	df 93       	push	r29
     b8a:	10 92 bf 0d 	sts	0x0DBF, r1
     b8e:	06 c0       	rjmp	.+12     	; 0xb9c <filenameWord+0x1c>
     b90:	0f 5f       	subi	r16, 0xFF	; 255
     b92:	1f 4f       	sbci	r17, 0xFF	; 255
     b94:	10 93 8f 0d 	sts	0x0D8F, r17
     b98:	00 93 8e 0d 	sts	0x0D8E, r16
     b9c:	00 91 8e 0d 	lds	r16, 0x0D8E
     ba0:	10 91 8f 0d 	lds	r17, 0x0D8F
     ba4:	f8 01       	movw	r30, r16
     ba6:	f0 80       	ld	r15, Z
     ba8:	8f 2d       	mov	r24, r15
     baa:	0e 94 a8 05 	call	0xb50	; 0xb50 <isValidFnChar>
     bae:	89 2b       	or	r24, r25
     bb0:	79 f3       	breq	.-34     	; 0xb90 <filenameWord+0x10>
     bb2:	ff 20       	and	r15, r15
     bb4:	f9 f0       	breq	.+62     	; 0xbf4 <filenameWord+0x74>
     bb6:	0f 5f       	subi	r16, 0xFF	; 255
     bb8:	1f 4f       	sbci	r17, 0xFF	; 255
     bba:	10 93 8f 0d 	sts	0x0D8F, r17
     bbe:	00 93 8e 0d 	sts	0x0D8E, r16
     bc2:	01 50       	subi	r16, 0x01	; 1
     bc4:	10 40       	sbci	r17, 0x00	; 0
     bc6:	05 c0       	rjmp	.+10     	; 0xbd2 <filenameWord+0x52>
     bc8:	21 96       	adiw	r28, 0x01	; 1
     bca:	d0 93 8f 0d 	sts	0x0D8F, r29
     bce:	c0 93 8e 0d 	sts	0x0D8E, r28
     bd2:	c0 91 8e 0d 	lds	r28, 0x0D8E
     bd6:	d0 91 8f 0d 	lds	r29, 0x0D8F
     bda:	88 81       	ld	r24, Y
     bdc:	0e 94 a8 05 	call	0xb50	; 0xb50 <isValidFnChar>
     be0:	89 2b       	or	r24, r25
     be2:	91 f7       	brne	.-28     	; 0xbc8 <filenameWord+0x48>
     be4:	c0 17       	cp	r28, r16
     be6:	d1 07       	cpc	r29, r17
     be8:	09 f0       	breq	.+2      	; 0xbec <filenameWord+0x6c>
     bea:	18 82       	st	Y, r1
     bec:	f8 01       	movw	r30, r16
     bee:	80 81       	ld	r24, Z
     bf0:	88 23       	and	r24, r24
     bf2:	19 f4       	brne	.+6      	; 0xbfa <filenameWord+0x7a>
     bf4:	81 e0       	ldi	r24, 0x01	; 1
     bf6:	80 93 bf 0d 	sts	0x0DBF, r24
     bfa:	c8 01       	movw	r24, r16
     bfc:	df 91       	pop	r29
     bfe:	cf 91       	pop	r28
     c00:	1f 91       	pop	r17
     c02:	0f 91       	pop	r16
     c04:	ff 90       	pop	r15
     c06:	08 95       	ret

00000c08 <fx_delay_ms>:
     c08:	28 e8       	ldi	r18, 0x88	; 136
     c0a:	33 e1       	ldi	r19, 0x13	; 19
     c0c:	04 c0       	rjmp	.+8      	; 0xc16 <fx_delay_ms+0xe>
     c0e:	f9 01       	movw	r30, r18
     c10:	31 97       	sbiw	r30, 0x01	; 1
     c12:	f1 f7       	brne	.-4      	; 0xc10 <fx_delay_ms+0x8>
     c14:	01 97       	sbiw	r24, 0x01	; 1
     c16:	00 97       	sbiw	r24, 0x00	; 0
     c18:	d1 f7       	brne	.-12     	; 0xc0e <fx_delay_ms+0x6>
     c1a:	08 95       	ret

00000c1c <fx_delay_us>:
     c1c:	36 e0       	ldi	r19, 0x06	; 6
     c1e:	04 c0       	rjmp	.+8      	; 0xc28 <fx_delay_us+0xc>
     c20:	23 2f       	mov	r18, r19
     c22:	2a 95       	dec	r18
     c24:	f1 f7       	brne	.-4      	; 0xc22 <fx_delay_us+0x6>
     c26:	01 97       	sbiw	r24, 0x01	; 1
     c28:	00 97       	sbiw	r24, 0x00	; 0
     c2a:	d1 f7       	brne	.-12     	; 0xc20 <fx_delay_us+0x4>
     c2c:	08 95       	ret

00000c2e <linenum_test>:
     c2e:	0e 94 3e 05 	call	0xa7c	; 0xa7c <ignorespace>
     c32:	20 e0       	ldi	r18, 0x00	; 0
     c34:	30 e0       	ldi	r19, 0x00	; 0
     c36:	1c c0       	rjmp	.+56     	; 0xc70 <linenum_test+0x42>
     c38:	89 e1       	ldi	r24, 0x19	; 25
     c3a:	29 39       	cpi	r18, 0x99	; 153
     c3c:	38 07       	cpc	r19, r24
     c3e:	18 f0       	brcs	.+6      	; 0xc46 <linenum_test+0x18>
     c40:	2f ef       	ldi	r18, 0xFF	; 255
     c42:	3f ef       	ldi	r19, 0xFF	; 255
     c44:	1e c0       	rjmp	.+60     	; 0xc82 <linenum_test+0x54>
     c46:	c9 01       	movw	r24, r18
     c48:	63 e0       	ldi	r22, 0x03	; 3
     c4a:	88 0f       	add	r24, r24
     c4c:	99 1f       	adc	r25, r25
     c4e:	6a 95       	dec	r22
     c50:	e1 f7       	brne	.-8      	; 0xc4a <linenum_test+0x1c>
     c52:	22 0f       	add	r18, r18
     c54:	33 1f       	adc	r19, r19
     c56:	82 0f       	add	r24, r18
     c58:	93 1f       	adc	r25, r19
     c5a:	24 2f       	mov	r18, r20
     c5c:	30 e0       	ldi	r19, 0x00	; 0
     c5e:	20 53       	subi	r18, 0x30	; 48
     c60:	30 40       	sbci	r19, 0x00	; 0
     c62:	28 0f       	add	r18, r24
     c64:	39 1f       	adc	r19, r25
     c66:	31 96       	adiw	r30, 0x01	; 1
     c68:	f0 93 8f 0d 	sts	0x0D8F, r31
     c6c:	e0 93 8e 0d 	sts	0x0D8E, r30
     c70:	e0 91 8e 0d 	lds	r30, 0x0D8E
     c74:	f0 91 8f 0d 	lds	r31, 0x0D8F
     c78:	40 81       	ld	r20, Z
     c7a:	84 2f       	mov	r24, r20
     c7c:	80 53       	subi	r24, 0x30	; 48
     c7e:	8a 30       	cpi	r24, 0x0A	; 10
     c80:	d8 f2       	brcs	.-74     	; 0xc38 <linenum_test+0xa>
     c82:	c9 01       	movw	r24, r18
     c84:	08 95       	ret

00000c86 <break_test>:
     c86:	80 91 a5 0d 	lds	r24, 0x0DA5
     c8a:	88 23       	and	r24, r24
     c8c:	31 f4       	brne	.+12     	; 0xc9a <break_test+0x14>
     c8e:	80 91 c6 00 	lds	r24, 0x00C6
     c92:	83 30       	cpi	r24, 0x03	; 3
     c94:	11 f0       	breq	.+4      	; 0xc9a <break_test+0x14>
     c96:	80 e0       	ldi	r24, 0x00	; 0
     c98:	08 95       	ret
     c9a:	10 92 a5 0d 	sts	0x0DA5, r1
     c9e:	81 e0       	ldi	r24, 0x01	; 1
     ca0:	08 95       	ret

00000ca2 <str_to_num>:
     ca2:	fc 01       	movw	r30, r24
     ca4:	80 81       	ld	r24, Z
     ca6:	8d 32       	cpi	r24, 0x2D	; 45
     ca8:	11 f0       	breq	.+4      	; 0xcae <str_to_num+0xc>
     caa:	50 e0       	ldi	r21, 0x00	; 0
     cac:	02 c0       	rjmp	.+4      	; 0xcb2 <str_to_num+0x10>
     cae:	31 96       	adiw	r30, 0x01	; 1
     cb0:	51 e0       	ldi	r21, 0x01	; 1
     cb2:	20 e0       	ldi	r18, 0x00	; 0
     cb4:	30 e0       	ldi	r19, 0x00	; 0
     cb6:	11 c0       	rjmp	.+34     	; 0xcda <str_to_num+0x38>
     cb8:	c9 01       	movw	r24, r18
     cba:	a3 e0       	ldi	r26, 0x03	; 3
     cbc:	88 0f       	add	r24, r24
     cbe:	99 1f       	adc	r25, r25
     cc0:	aa 95       	dec	r26
     cc2:	e1 f7       	brne	.-8      	; 0xcbc <str_to_num+0x1a>
     cc4:	22 0f       	add	r18, r18
     cc6:	33 1f       	adc	r19, r19
     cc8:	82 0f       	add	r24, r18
     cca:	93 1f       	adc	r25, r19
     ccc:	24 2f       	mov	r18, r20
     cce:	30 e0       	ldi	r19, 0x00	; 0
     cd0:	20 53       	subi	r18, 0x30	; 48
     cd2:	30 40       	sbci	r19, 0x00	; 0
     cd4:	28 0f       	add	r18, r24
     cd6:	39 1f       	adc	r19, r25
     cd8:	31 96       	adiw	r30, 0x01	; 1
     cda:	40 81       	ld	r20, Z
     cdc:	84 2f       	mov	r24, r20
     cde:	80 53       	subi	r24, 0x30	; 48
     ce0:	8a 30       	cpi	r24, 0x0A	; 10
     ce2:	50 f3       	brcs	.-44     	; 0xcb8 <str_to_num+0x16>
     ce4:	55 23       	and	r21, r21
     ce6:	19 f0       	breq	.+6      	; 0xcee <str_to_num+0x4c>
     ce8:	30 95       	com	r19
     cea:	21 95       	neg	r18
     cec:	3f 4f       	sbci	r19, 0xFF	; 255
     cee:	c9 01       	movw	r24, r18
     cf0:	08 95       	ret

00000cf2 <newline>:
     cf2:	0f 93       	push	r16
     cf4:	1f 93       	push	r17
     cf6:	8c 01       	movw	r16, r24
     cf8:	8a e0       	ldi	r24, 0x0A	; 10
     cfa:	90 e0       	ldi	r25, 0x00	; 0
     cfc:	b8 01       	movw	r22, r16
     cfe:	0e 94 d6 17 	call	0x2fac	; 0x2fac <fputc>
     d02:	8d e0       	ldi	r24, 0x0D	; 13
     d04:	90 e0       	ldi	r25, 0x00	; 0
     d06:	b8 01       	movw	r22, r16
     d08:	0e 94 d6 17 	call	0x2fac	; 0x2fac <fputc>
     d0c:	1f 91       	pop	r17
     d0e:	0f 91       	pop	r16
     d10:	08 95       	ret

00000d12 <get_line>:
     d12:	0f 93       	push	r16
     d14:	1f 93       	push	r17
     d16:	80 91 a0 0d 	lds	r24, 0x0DA0
     d1a:	90 91 a1 0d 	lds	r25, 0x0DA1
     d1e:	02 96       	adiw	r24, 0x02	; 2
     d20:	90 93 8f 0d 	sts	0x0D8F, r25
     d24:	80 93 8e 0d 	sts	0x0D8E, r24
     d28:	90 93 3a 01 	sts	0x013A, r25
     d2c:	80 93 39 01 	sts	0x0139, r24
     d30:	80 91 38 01 	lds	r24, 0x0138
     d34:	83 ff       	sbrs	r24, 3
     d36:	26 c0       	rjmp	.+76     	; 0xd84 <get_line+0x72>
     d38:	84 e2       	ldi	r24, 0x24	; 36
     d3a:	91 e0       	ldi	r25, 0x01	; 1
     d3c:	0e 94 80 17 	call	0x2f00	; 0x2f00 <fgetc>
     d40:	8a 30       	cpi	r24, 0x0A	; 10
     d42:	51 f0       	breq	.+20     	; 0xd58 <get_line+0x46>
     d44:	8d 30       	cpi	r24, 0x0D	; 13
     d46:	41 f0       	breq	.+16     	; 0xd58 <get_line+0x46>
     d48:	88 23       	and	r24, r24
     d4a:	69 f4       	brne	.+26     	; 0xd66 <get_line+0x54>
     d4c:	80 91 38 01 	lds	r24, 0x0138
     d50:	87 7f       	andi	r24, 0xF7	; 247
     d52:	80 93 38 01 	sts	0x0138, r24
     d56:	44 c1       	rjmp	.+648    	; 0xfe0 <get_line+0x2ce>
     d58:	e0 91 8e 0d 	lds	r30, 0x0D8E
     d5c:	f0 91 8f 0d 	lds	r31, 0x0D8F
     d60:	8a e0       	ldi	r24, 0x0A	; 10
     d62:	80 83       	st	Z, r24
     d64:	3d c1       	rjmp	.+634    	; 0xfe0 <get_line+0x2ce>
     d66:	e0 91 8e 0d 	lds	r30, 0x0D8E
     d6a:	f0 91 8f 0d 	lds	r31, 0x0D8F
     d6e:	80 83       	st	Z, r24
     d70:	80 91 8e 0d 	lds	r24, 0x0D8E
     d74:	90 91 8f 0d 	lds	r25, 0x0D8F
     d78:	01 96       	adiw	r24, 0x01	; 1
     d7a:	90 93 8f 0d 	sts	0x0D8F, r25
     d7e:	80 93 8e 0d 	sts	0x0D8E, r24
     d82:	da cf       	rjmp	.-76     	; 0xd38 <get_line+0x26>
     d84:	80 91 c2 0d 	lds	r24, 0x0DC2
     d88:	90 91 c3 0d 	lds	r25, 0x0DC3
     d8c:	0e 94 80 17 	call	0x2f00	; 0x2f00 <fgetc>
     d90:	18 2f       	mov	r17, r24
     d92:	88 30       	cpi	r24, 0x08	; 8
     d94:	09 f4       	brne	.+2      	; 0xd98 <get_line+0x86>
     d96:	d7 c0       	rjmp	.+430    	; 0xf46 <get_line+0x234>
     d98:	89 30       	cpi	r24, 0x09	; 9
     d9a:	70 f4       	brcc	.+28     	; 0xdb8 <get_line+0xa6>
     d9c:	86 30       	cpi	r24, 0x06	; 6
     d9e:	40 f4       	brcc	.+16     	; 0xdb0 <get_line+0x9e>
     da0:	84 30       	cpi	r24, 0x04	; 4
     da2:	80 f7       	brcc	.-32     	; 0xd84 <get_line+0x72>
     da4:	81 30       	cpi	r24, 0x01	; 1
     da6:	d9 f0       	breq	.+54     	; 0xdde <get_line+0xcc>
     da8:	82 30       	cpi	r24, 0x02	; 2
     daa:	09 f0       	breq	.+2      	; 0xdae <get_line+0x9c>
     dac:	e6 c0       	rjmp	.+460    	; 0xf7a <get_line+0x268>
     dae:	42 c0       	rjmp	.+132    	; 0xe34 <get_line+0x122>
     db0:	87 30       	cpi	r24, 0x07	; 7
     db2:	09 f0       	breq	.+2      	; 0xdb6 <get_line+0xa4>
     db4:	e2 c0       	rjmp	.+452    	; 0xf7a <get_line+0x268>
     db6:	ed c0       	rjmp	.+474    	; 0xf92 <get_line+0x280>
     db8:	8d 30       	cpi	r24, 0x0D	; 13
     dba:	09 f4       	brne	.+2      	; 0xdbe <get_line+0xac>
     dbc:	b3 c0       	rjmp	.+358    	; 0xf24 <get_line+0x212>
     dbe:	8e 30       	cpi	r24, 0x0E	; 14
     dc0:	38 f4       	brcc	.+14     	; 0xdd0 <get_line+0xbe>
     dc2:	8a 30       	cpi	r24, 0x0A	; 10
     dc4:	09 f4       	brne	.+2      	; 0xdc8 <get_line+0xb6>
     dc6:	ae c0       	rjmp	.+348    	; 0xf24 <get_line+0x212>
     dc8:	8c 30       	cpi	r24, 0x0C	; 12
     dca:	09 f0       	breq	.+2      	; 0xdce <get_line+0xbc>
     dcc:	d6 c0       	rjmp	.+428    	; 0xf7a <get_line+0x268>
     dce:	da cf       	rjmp	.-76     	; 0xd84 <get_line+0x72>
     dd0:	80 31       	cpi	r24, 0x10	; 16
     dd2:	09 f4       	brne	.+2      	; 0xdd6 <get_line+0xc4>
     dd4:	78 c0       	rjmp	.+240    	; 0xec6 <get_line+0x1b4>
     dd6:	81 31       	cpi	r24, 0x11	; 17
     dd8:	09 f0       	breq	.+2      	; 0xddc <get_line+0xca>
     dda:	cf c0       	rjmp	.+414    	; 0xf7a <get_line+0x268>
     ddc:	88 c0       	rjmp	.+272    	; 0xeee <get_line+0x1dc>
     dde:	80 91 a0 0d 	lds	r24, 0x0DA0
     de2:	90 91 a1 0d 	lds	r25, 0x0DA1
     de6:	02 96       	adiw	r24, 0x02	; 2
     de8:	20 91 8e 0d 	lds	r18, 0x0D8E
     dec:	30 91 8f 0d 	lds	r19, 0x0D8F
     df0:	82 17       	cp	r24, r18
     df2:	93 07       	cpc	r25, r19
     df4:	38 f6       	brcc	.-114    	; 0xd84 <get_line+0x72>
     df6:	60 91 c4 0d 	lds	r22, 0x0DC4
     dfa:	70 91 c5 0d 	lds	r23, 0x0DC5
     dfe:	81 e0       	ldi	r24, 0x01	; 1
     e00:	90 e0       	ldi	r25, 0x00	; 0
     e02:	0e 94 d6 17 	call	0x2fac	; 0x2fac <fputc>
     e06:	80 91 8e 0d 	lds	r24, 0x0D8E
     e0a:	82 50       	subi	r24, 0x02	; 2
     e0c:	20 91 a0 0d 	lds	r18, 0x0DA0
     e10:	82 1b       	sub	r24, r18
     e12:	82 95       	swap	r24
     e14:	86 95       	lsr	r24
     e16:	87 70       	andi	r24, 0x07	; 7
     e18:	90 e0       	ldi	r25, 0x00	; 0
     e1a:	60 91 c4 0d 	lds	r22, 0x0DC4
     e1e:	70 91 c5 0d 	lds	r23, 0x0DC5
     e22:	01 96       	adiw	r24, 0x01	; 1
     e24:	0e 94 d6 17 	call	0x2fac	; 0x2fac <fputc>
     e28:	80 91 a0 0d 	lds	r24, 0x0DA0
     e2c:	90 91 a1 0d 	lds	r25, 0x0DA1
     e30:	02 96       	adiw	r24, 0x02	; 2
     e32:	44 c0       	rjmp	.+136    	; 0xebc <get_line+0x1aa>
     e34:	20 91 8e 0d 	lds	r18, 0x0D8E
     e38:	30 91 8f 0d 	lds	r19, 0x0D8F
     e3c:	80 91 39 01 	lds	r24, 0x0139
     e40:	90 91 3a 01 	lds	r25, 0x013A
     e44:	28 17       	cp	r18, r24
     e46:	39 07       	cpc	r19, r25
     e48:	08 f0       	brcs	.+2      	; 0xe4c <get_line+0x13a>
     e4a:	9c cf       	rjmp	.-200    	; 0xd84 <get_line+0x72>
     e4c:	60 91 c4 0d 	lds	r22, 0x0DC4
     e50:	70 91 c5 0d 	lds	r23, 0x0DC5
     e54:	82 e0       	ldi	r24, 0x02	; 2
     e56:	90 e0       	ldi	r25, 0x00	; 0
     e58:	0e 94 d6 17 	call	0x2fac	; 0x2fac <fputc>
     e5c:	90 91 a0 0d 	lds	r25, 0x0DA0
     e60:	10 91 39 01 	lds	r17, 0x0139
     e64:	12 50       	subi	r17, 0x02	; 2
     e66:	19 1b       	sub	r17, r25
     e68:	01 2f       	mov	r16, r17
     e6a:	02 95       	swap	r16
     e6c:	06 95       	lsr	r16
     e6e:	07 70       	andi	r16, 0x07	; 7
     e70:	80 91 8e 0d 	lds	r24, 0x0D8E
     e74:	82 50       	subi	r24, 0x02	; 2
     e76:	89 1b       	sub	r24, r25
     e78:	82 95       	swap	r24
     e7a:	86 95       	lsr	r24
     e7c:	87 70       	andi	r24, 0x07	; 7
     e7e:	90 2f       	mov	r25, r16
     e80:	98 1b       	sub	r25, r24
     e82:	89 2f       	mov	r24, r25
     e84:	90 e0       	ldi	r25, 0x00	; 0
     e86:	60 91 c4 0d 	lds	r22, 0x0DC4
     e8a:	70 91 c5 0d 	lds	r23, 0x0DC5
     e8e:	01 96       	adiw	r24, 0x01	; 1
     e90:	0e 94 d6 17 	call	0x2fac	; 0x2fac <fputc>
     e94:	80 2f       	mov	r24, r16
     e96:	90 e0       	ldi	r25, 0x00	; 0
     e98:	b5 e0       	ldi	r27, 0x05	; 5
     e9a:	88 0f       	add	r24, r24
     e9c:	99 1f       	adc	r25, r25
     e9e:	ba 95       	dec	r27
     ea0:	e1 f7       	brne	.-8      	; 0xe9a <get_line+0x188>
     ea2:	60 91 c4 0d 	lds	r22, 0x0DC4
     ea6:	70 91 c5 0d 	lds	r23, 0x0DC5
     eaa:	18 1b       	sub	r17, r24
     eac:	81 2f       	mov	r24, r17
     eae:	90 e0       	ldi	r25, 0x00	; 0
     eb0:	0e 94 d6 17 	call	0x2fac	; 0x2fac <fputc>
     eb4:	80 91 39 01 	lds	r24, 0x0139
     eb8:	90 91 3a 01 	lds	r25, 0x013A
     ebc:	90 93 8f 0d 	sts	0x0D8F, r25
     ec0:	80 93 8e 0d 	sts	0x0D8E, r24
     ec4:	5f cf       	rjmp	.-322    	; 0xd84 <get_line+0x72>
     ec6:	80 91 a0 0d 	lds	r24, 0x0DA0
     eca:	90 91 a1 0d 	lds	r25, 0x0DA1
     ece:	02 96       	adiw	r24, 0x02	; 2
     ed0:	20 91 8e 0d 	lds	r18, 0x0D8E
     ed4:	30 91 8f 0d 	lds	r19, 0x0D8F
     ed8:	82 17       	cp	r24, r18
     eda:	93 07       	cpc	r25, r19
     edc:	08 f0       	brcs	.+2      	; 0xee0 <get_line+0x1ce>
     ede:	59 c0       	rjmp	.+178    	; 0xf92 <get_line+0x280>
     ee0:	60 91 c4 0d 	lds	r22, 0x0DC4
     ee4:	70 91 c5 0d 	lds	r23, 0x0DC5
     ee8:	80 e1       	ldi	r24, 0x10	; 16
     eea:	90 e0       	ldi	r25, 0x00	; 0
     eec:	3e c0       	rjmp	.+124    	; 0xf6a <get_line+0x258>
     eee:	20 91 8e 0d 	lds	r18, 0x0D8E
     ef2:	30 91 8f 0d 	lds	r19, 0x0D8F
     ef6:	80 91 39 01 	lds	r24, 0x0139
     efa:	90 91 3a 01 	lds	r25, 0x013A
     efe:	28 17       	cp	r18, r24
     f00:	39 07       	cpc	r19, r25
     f02:	08 f0       	brcs	.+2      	; 0xf06 <get_line+0x1f4>
     f04:	46 c0       	rjmp	.+140    	; 0xf92 <get_line+0x280>
     f06:	2f 5f       	subi	r18, 0xFF	; 255
     f08:	3f 4f       	sbci	r19, 0xFF	; 255
     f0a:	30 93 8f 0d 	sts	0x0D8F, r19
     f0e:	20 93 8e 0d 	sts	0x0D8E, r18
     f12:	60 91 c4 0d 	lds	r22, 0x0DC4
     f16:	70 91 c5 0d 	lds	r23, 0x0DC5
     f1a:	81 e1       	ldi	r24, 0x11	; 17
     f1c:	90 e0       	ldi	r25, 0x00	; 0
     f1e:	0e 94 d6 17 	call	0x2fac	; 0x2fac <fputc>
     f22:	30 cf       	rjmp	.-416    	; 0xd84 <get_line+0x72>
     f24:	e0 91 39 01 	lds	r30, 0x0139
     f28:	f0 91 3a 01 	lds	r31, 0x013A
     f2c:	f0 93 8f 0d 	sts	0x0D8F, r31
     f30:	e0 93 8e 0d 	sts	0x0D8E, r30
     f34:	8a e0       	ldi	r24, 0x0A	; 10
     f36:	80 83       	st	Z, r24
     f38:	80 91 c4 0d 	lds	r24, 0x0DC4
     f3c:	90 91 c5 0d 	lds	r25, 0x0DC5
     f40:	0e 94 79 06 	call	0xcf2	; 0xcf2 <newline>
     f44:	4d c0       	rjmp	.+154    	; 0xfe0 <get_line+0x2ce>
     f46:	80 91 a0 0d 	lds	r24, 0x0DA0
     f4a:	90 91 a1 0d 	lds	r25, 0x0DA1
     f4e:	02 96       	adiw	r24, 0x02	; 2
     f50:	20 91 8e 0d 	lds	r18, 0x0D8E
     f54:	30 91 8f 0d 	lds	r19, 0x0D8F
     f58:	82 17       	cp	r24, r18
     f5a:	93 07       	cpc	r25, r19
     f5c:	d0 f4       	brcc	.+52     	; 0xf92 <get_line+0x280>
     f5e:	60 91 c4 0d 	lds	r22, 0x0DC4
     f62:	70 91 c5 0d 	lds	r23, 0x0DC5
     f66:	88 e0       	ldi	r24, 0x08	; 8
     f68:	90 e0       	ldi	r25, 0x00	; 0
     f6a:	0e 94 d6 17 	call	0x2fac	; 0x2fac <fputc>
     f6e:	80 91 8e 0d 	lds	r24, 0x0D8E
     f72:	90 91 8f 0d 	lds	r25, 0x0D8F
     f76:	01 97       	sbiw	r24, 0x01	; 1
     f78:	a1 cf       	rjmp	.-190    	; 0xebc <get_line+0x1aa>
     f7a:	80 91 ad 0d 	lds	r24, 0x0DAD
     f7e:	90 91 ae 0d 	lds	r25, 0x0DAE
     f82:	02 97       	sbiw	r24, 0x02	; 2
     f84:	20 91 8e 0d 	lds	r18, 0x0D8E
     f88:	30 91 8f 0d 	lds	r19, 0x0D8F
     f8c:	28 17       	cp	r18, r24
     f8e:	39 07       	cpc	r19, r25
     f90:	19 f4       	brne	.+6      	; 0xf98 <get_line+0x286>
     f92:	0e 94 de 04 	call	0x9bc	; 0x9bc <do_beep>
     f96:	f6 ce       	rjmp	.-532    	; 0xd84 <get_line+0x72>
     f98:	60 91 c4 0d 	lds	r22, 0x0DC4
     f9c:	70 91 c5 0d 	lds	r23, 0x0DC5
     fa0:	81 2f       	mov	r24, r17
     fa2:	90 e0       	ldi	r25, 0x00	; 0
     fa4:	0e 94 d6 17 	call	0x2fac	; 0x2fac <fputc>
     fa8:	e0 91 8e 0d 	lds	r30, 0x0D8E
     fac:	f0 91 8f 0d 	lds	r31, 0x0D8F
     fb0:	10 83       	st	Z, r17
     fb2:	20 91 8e 0d 	lds	r18, 0x0D8E
     fb6:	30 91 8f 0d 	lds	r19, 0x0D8F
     fba:	2f 5f       	subi	r18, 0xFF	; 255
     fbc:	3f 4f       	sbci	r19, 0xFF	; 255
     fbe:	30 93 8f 0d 	sts	0x0D8F, r19
     fc2:	20 93 8e 0d 	sts	0x0D8E, r18
     fc6:	80 91 39 01 	lds	r24, 0x0139
     fca:	90 91 3a 01 	lds	r25, 0x013A
     fce:	82 17       	cp	r24, r18
     fd0:	93 07       	cpc	r25, r19
     fd2:	08 f0       	brcs	.+2      	; 0xfd6 <get_line+0x2c4>
     fd4:	d7 ce       	rjmp	.-594    	; 0xd84 <get_line+0x72>
     fd6:	30 93 3a 01 	sts	0x013A, r19
     fda:	20 93 39 01 	sts	0x0139, r18
     fde:	d2 ce       	rjmp	.-604    	; 0xd84 <get_line+0x72>
     fe0:	1f 91       	pop	r17
     fe2:	0f 91       	pop	r16
     fe4:	08 95       	ret

00000fe6 <print_string>:
     fe6:	1f 93       	push	r17
     fe8:	e0 91 8e 0d 	lds	r30, 0x0D8E
     fec:	f0 91 8f 0d 	lds	r31, 0x0D8F
     ff0:	10 81       	ld	r17, Z
     ff2:	12 32       	cpi	r17, 0x22	; 34
     ff4:	11 f0       	breq	.+4      	; 0xffa <print_string+0x14>
     ff6:	17 32       	cpi	r17, 0x27	; 39
     ff8:	61 f5       	brne	.+88     	; 0x1052 <print_string+0x6c>
     ffa:	31 96       	adiw	r30, 0x01	; 1
     ffc:	f0 93 8f 0d 	sts	0x0D8F, r31
    1000:	e0 93 8e 0d 	sts	0x0D8E, r30
    1004:	31 97       	sbiw	r30, 0x01	; 1
    1006:	03 c0       	rjmp	.+6      	; 0x100e <print_string+0x28>
    1008:	31 96       	adiw	r30, 0x01	; 1
    100a:	8a 30       	cpi	r24, 0x0A	; 10
    100c:	11 f1       	breq	.+68     	; 0x1052 <print_string+0x6c>
    100e:	81 81       	ldd	r24, Z+1	; 0x01
    1010:	81 17       	cp	r24, r17
    1012:	d1 f7       	brne	.-12     	; 0x1008 <print_string+0x22>
    1014:	10 c0       	rjmp	.+32     	; 0x1036 <print_string+0x50>
    1016:	60 91 c4 0d 	lds	r22, 0x0DC4
    101a:	70 91 c5 0d 	lds	r23, 0x0DC5
    101e:	90 e0       	ldi	r25, 0x00	; 0
    1020:	0e 94 d6 17 	call	0x2fac	; 0x2fac <fputc>
    1024:	80 91 8e 0d 	lds	r24, 0x0D8E
    1028:	90 91 8f 0d 	lds	r25, 0x0D8F
    102c:	01 96       	adiw	r24, 0x01	; 1
    102e:	90 93 8f 0d 	sts	0x0D8F, r25
    1032:	80 93 8e 0d 	sts	0x0D8E, r24
    1036:	e0 91 8e 0d 	lds	r30, 0x0D8E
    103a:	f0 91 8f 0d 	lds	r31, 0x0D8F
    103e:	80 81       	ld	r24, Z
    1040:	81 17       	cp	r24, r17
    1042:	49 f7       	brne	.-46     	; 0x1016 <print_string+0x30>
    1044:	31 96       	adiw	r30, 0x01	; 1
    1046:	f0 93 8f 0d 	sts	0x0D8F, r31
    104a:	e0 93 8e 0d 	sts	0x0D8E, r30
    104e:	81 e0       	ldi	r24, 0x01	; 1
    1050:	01 c0       	rjmp	.+2      	; 0x1054 <print_string+0x6e>
    1052:	80 e0       	ldi	r24, 0x00	; 0
    1054:	1f 91       	pop	r17
    1056:	08 95       	ret

00001058 <printmsgNoNL>:
    1058:	0f 93       	push	r16
    105a:	1f 93       	push	r17
    105c:	cf 93       	push	r28
    105e:	df 93       	push	r29
    1060:	ec 01       	movw	r28, r24
    1062:	8b 01       	movw	r16, r22
    1064:	07 c0       	rjmp	.+14     	; 0x1074 <printmsgNoNL+0x1c>
    1066:	21 96       	adiw	r28, 0x01	; 1
    1068:	f9 01       	movw	r30, r18
    106a:	84 91       	lpm	r24, Z+
    106c:	90 e0       	ldi	r25, 0x00	; 0
    106e:	b8 01       	movw	r22, r16
    1070:	0e 94 d6 17 	call	0x2fac	; 0x2fac <fputc>
    1074:	9e 01       	movw	r18, r28
    1076:	fe 01       	movw	r30, r28
    1078:	84 91       	lpm	r24, Z+
    107a:	88 23       	and	r24, r24
    107c:	a1 f7       	brne	.-24     	; 0x1066 <printmsgNoNL+0xe>
    107e:	df 91       	pop	r29
    1080:	cf 91       	pop	r28
    1082:	1f 91       	pop	r17
    1084:	0f 91       	pop	r16
    1086:	08 95       	ret

00001088 <printmsg>:
    1088:	0f 93       	push	r16
    108a:	1f 93       	push	r17
    108c:	8b 01       	movw	r16, r22
    108e:	0e 94 2c 08 	call	0x1058	; 0x1058 <printmsgNoNL>
    1092:	c8 01       	movw	r24, r16
    1094:	0e 94 79 06 	call	0xcf2	; 0xcf2 <newline>
    1098:	1f 91       	pop	r17
    109a:	0f 91       	pop	r16
    109c:	08 95       	ret

0000109e <kb_decode>:
    109e:	1f 93       	push	r17
    10a0:	e8 2f       	mov	r30, r24
    10a2:	10 91 36 01 	lds	r17, 0x0136
    10a6:	21 2f       	mov	r18, r17
    10a8:	30 e0       	ldi	r19, 0x00	; 0
    10aa:	10 fd       	sbrc	r17, 0
    10ac:	8c c0       	rjmp	.+280    	; 0x11c6 <__stack+0xc7>
    10ae:	87 37       	cpi	r24, 0x77	; 119
    10b0:	79 f1       	breq	.+94     	; 0x1110 <__stack+0x11>
    10b2:	88 37       	cpi	r24, 0x78	; 120
    10b4:	60 f4       	brcc	.+24     	; 0x10ce <kb_decode+0x30>
    10b6:	84 31       	cpi	r24, 0x14	; 20
    10b8:	71 f1       	breq	.+92     	; 0x1116 <__stack+0x17>
    10ba:	85 31       	cpi	r24, 0x15	; 21
    10bc:	18 f4       	brcc	.+6      	; 0x10c4 <kb_decode+0x26>
    10be:	82 31       	cpi	r24, 0x12	; 18
    10c0:	71 f5       	brne	.+92     	; 0x111e <__stack+0x1f>
    10c2:	2b c0       	rjmp	.+86     	; 0x111a <__stack+0x1b>
    10c4:	88 35       	cpi	r24, 0x58	; 88
    10c6:	11 f1       	breq	.+68     	; 0x110c <__stack+0xd>
    10c8:	89 35       	cpi	r24, 0x59	; 89
    10ca:	49 f5       	brne	.+82     	; 0x111e <__stack+0x1f>
    10cc:	26 c0       	rjmp	.+76     	; 0x111a <__stack+0x1b>
    10ce:	80 3e       	cpi	r24, 0xE0	; 224
    10d0:	b1 f0       	breq	.+44     	; 0x10fe <kb_decode+0x60>
    10d2:	81 3e       	cpi	r24, 0xE1	; 225
    10d4:	18 f4       	brcc	.+6      	; 0x10dc <kb_decode+0x3e>
    10d6:	8a 3a       	cpi	r24, 0xAA	; 170
    10d8:	11 f5       	brne	.+68     	; 0x111e <__stack+0x1f>
    10da:	85 c0       	rjmp	.+266    	; 0x11e6 <__stack+0xe7>
    10dc:	80 3f       	cpi	r24, 0xF0	; 240
    10de:	89 f0       	breq	.+34     	; 0x1102 <__stack+0x3>
    10e0:	8c 3f       	cpi	r24, 0xFC	; 252
    10e2:	e9 f4       	brne	.+58     	; 0x111e <__stack+0x1f>
    10e4:	60 91 c4 0d 	lds	r22, 0x0DC4
    10e8:	70 91 c5 0d 	lds	r23, 0x0DC5
    10ec:	82 e0       	ldi	r24, 0x02	; 2
    10ee:	91 e0       	ldi	r25, 0x01	; 1
    10f0:	0e 94 44 08 	call	0x1088	; 0x1088 <printmsg>
    10f4:	0e 94 de 04 	call	0x9bc	; 0x9bc <do_beep>
    10f8:	0e 94 de 04 	call	0x9bc	; 0x9bc <do_beep>
    10fc:	74 c0       	rjmp	.+232    	; 0x11e6 <__stack+0xe7>
    10fe:	12 60       	ori	r17, 0x02	; 2
    1100:	02 c0       	rjmp	.+4      	; 0x1106 <__stack+0x7>
    1102:	11 60       	ori	r17, 0x01	; 1
    1104:	1d 7f       	andi	r17, 0xFD	; 253
    1106:	10 93 36 01 	sts	0x0136, r17
    110a:	6d c0       	rjmp	.+218    	; 0x11e6 <__stack+0xe7>
    110c:	80 e2       	ldi	r24, 0x20	; 32
    110e:	01 c0       	rjmp	.+2      	; 0x1112 <__stack+0x13>
    1110:	88 e0       	ldi	r24, 0x08	; 8
    1112:	18 27       	eor	r17, r24
    1114:	f8 cf       	rjmp	.-16     	; 0x1106 <__stack+0x7>
    1116:	14 60       	ori	r17, 0x04	; 4
    1118:	f6 cf       	rjmp	.-20     	; 0x1106 <__stack+0x7>
    111a:	10 61       	ori	r17, 0x10	; 16
    111c:	f4 cf       	rjmp	.-24     	; 0x1106 <__stack+0x7>
    111e:	22 ff       	sbrs	r18, 2
    1120:	1a c0       	rjmp	.+52     	; 0x1156 <__stack+0x57>
    1122:	e1 32       	cpi	r30, 0x21	; 33
    1124:	21 f4       	brne	.+8      	; 0x112e <__stack+0x2f>
    1126:	81 e0       	ldi	r24, 0x01	; 1
    1128:	80 93 a5 0d 	sts	0x0DA5, r24
    112c:	5c c0       	rjmp	.+184    	; 0x11e6 <__stack+0xe7>
    112e:	e4 33       	cpi	r30, 0x34	; 52
    1130:	29 f4       	brne	.+10     	; 0x113c <__stack+0x3d>
    1132:	1b 7f       	andi	r17, 0xFB	; 251
    1134:	10 93 36 01 	sts	0x0136, r17
    1138:	87 e0       	ldi	r24, 0x07	; 7
    113a:	42 c0       	rjmp	.+132    	; 0x11c0 <__stack+0xc1>
    113c:	eb 34       	cpi	r30, 0x4B	; 75
    113e:	11 f4       	brne	.+4      	; 0x1144 <__stack+0x45>
    1140:	8c e0       	ldi	r24, 0x0C	; 12
    1142:	3e c0       	rjmp	.+124    	; 0x11c0 <__stack+0xc1>
    1144:	ec 31       	cpi	r30, 0x1C	; 28
    1146:	11 f4       	brne	.+4      	; 0x114c <__stack+0x4d>
    1148:	81 e0       	ldi	r24, 0x01	; 1
    114a:	3a c0       	rjmp	.+116    	; 0x11c0 <__stack+0xc1>
    114c:	e4 32       	cpi	r30, 0x24	; 36
    114e:	09 f0       	breq	.+2      	; 0x1152 <__stack+0x53>
    1150:	4a c0       	rjmp	.+148    	; 0x11e6 <__stack+0xe7>
    1152:	82 e0       	ldi	r24, 0x02	; 2
    1154:	35 c0       	rjmp	.+106    	; 0x11c0 <__stack+0xc1>
    1156:	21 ff       	sbrs	r18, 1
    1158:	1f c0       	rjmp	.+62     	; 0x1198 <__stack+0x99>
    115a:	ea 35       	cpi	r30, 0x5A	; 90
    115c:	11 f4       	brne	.+4      	; 0x1162 <__stack+0x63>
    115e:	8d e0       	ldi	r24, 0x0D	; 13
    1160:	18 c0       	rjmp	.+48     	; 0x1192 <__stack+0x93>
    1162:	e5 37       	cpi	r30, 0x75	; 117
    1164:	11 f4       	brne	.+4      	; 0x116a <__stack+0x6b>
    1166:	84 e0       	ldi	r24, 0x04	; 4
    1168:	14 c0       	rjmp	.+40     	; 0x1192 <__stack+0x93>
    116a:	e2 37       	cpi	r30, 0x72	; 114
    116c:	11 f4       	brne	.+4      	; 0x1172 <__stack+0x73>
    116e:	85 e0       	ldi	r24, 0x05	; 5
    1170:	10 c0       	rjmp	.+32     	; 0x1192 <__stack+0x93>
    1172:	eb 36       	cpi	r30, 0x6B	; 107
    1174:	11 f4       	brne	.+4      	; 0x117a <__stack+0x7b>
    1176:	80 e1       	ldi	r24, 0x10	; 16
    1178:	0c c0       	rjmp	.+24     	; 0x1192 <__stack+0x93>
    117a:	e4 37       	cpi	r30, 0x74	; 116
    117c:	11 f4       	brne	.+4      	; 0x1182 <__stack+0x83>
    117e:	81 e1       	ldi	r24, 0x11	; 17
    1180:	08 c0       	rjmp	.+16     	; 0x1192 <__stack+0x93>
    1182:	ec 36       	cpi	r30, 0x6C	; 108
    1184:	11 f4       	brne	.+4      	; 0x118a <__stack+0x8b>
    1186:	81 e0       	ldi	r24, 0x01	; 1
    1188:	04 c0       	rjmp	.+8      	; 0x1192 <__stack+0x93>
    118a:	e9 36       	cpi	r30, 0x69	; 105
    118c:	09 f0       	breq	.+2      	; 0x1190 <__stack+0x91>
    118e:	ba cf       	rjmp	.-140    	; 0x1104 <__stack+0x5>
    1190:	82 e0       	ldi	r24, 0x02	; 2
    1192:	0e 94 f5 04 	call	0x9ea	; 0x9ea <kb_to_buffer>
    1196:	b6 cf       	rjmp	.-148    	; 0x1104 <__stack+0x5>
    1198:	c9 01       	movw	r24, r18
    119a:	34 e0       	ldi	r19, 0x04	; 4
    119c:	96 95       	lsr	r25
    119e:	87 95       	ror	r24
    11a0:	3a 95       	dec	r19
    11a2:	e1 f7       	brne	.-8      	; 0x119c <__stack+0x9d>
    11a4:	81 70       	andi	r24, 0x01	; 1
    11a6:	25 fd       	sbrc	r18, 5
    11a8:	8e 5f       	subi	r24, 0xFE	; 254
    11aa:	f0 e0       	ldi	r31, 0x00	; 0
    11ac:	ee 0f       	add	r30, r30
    11ae:	ff 1f       	adc	r31, r31
    11b0:	ee 0f       	add	r30, r30
    11b2:	ff 1f       	adc	r31, r31
    11b4:	e8 0f       	add	r30, r24
    11b6:	f1 1d       	adc	r31, r1
    11b8:	e4 5c       	subi	r30, 0xC4	; 196
    11ba:	fe 4f       	sbci	r31, 0xFE	; 254
    11bc:	e4 91       	lpm	r30, Z+
    11be:	8e 2f       	mov	r24, r30
    11c0:	0e 94 f5 04 	call	0x9ea	; 0x9ea <kb_to_buffer>
    11c4:	10 c0       	rjmp	.+32     	; 0x11e6 <__stack+0xe7>
    11c6:	81 2f       	mov	r24, r17
    11c8:	8e 7f       	andi	r24, 0xFE	; 254
    11ca:	80 93 36 01 	sts	0x0136, r24
    11ce:	e4 31       	cpi	r30, 0x14	; 20
    11d0:	29 f0       	breq	.+10     	; 0x11dc <__stack+0xdd>
    11d2:	e9 35       	cpi	r30, 0x59	; 89
    11d4:	29 f0       	breq	.+10     	; 0x11e0 <__stack+0xe1>
    11d6:	e2 31       	cpi	r30, 0x12	; 18
    11d8:	31 f4       	brne	.+12     	; 0x11e6 <__stack+0xe7>
    11da:	02 c0       	rjmp	.+4      	; 0x11e0 <__stack+0xe1>
    11dc:	1a 7f       	andi	r17, 0xFA	; 250
    11de:	93 cf       	rjmp	.-218    	; 0x1106 <__stack+0x7>
    11e0:	8f 7e       	andi	r24, 0xEF	; 239
    11e2:	80 93 36 01 	sts	0x0136, r24
    11e6:	1f 91       	pop	r17
    11e8:	08 95       	ret

000011ea <__vector_1>:
    11ea:	1f 92       	push	r1
    11ec:	0f 92       	push	r0
    11ee:	0f b6       	in	r0, 0x3f	; 63
    11f0:	0f 92       	push	r0
    11f2:	11 24       	eor	r1, r1
    11f4:	2f 93       	push	r18
    11f6:	3f 93       	push	r19
    11f8:	4f 93       	push	r20
    11fa:	5f 93       	push	r21
    11fc:	6f 93       	push	r22
    11fe:	7f 93       	push	r23
    1200:	8f 93       	push	r24
    1202:	9f 93       	push	r25
    1204:	af 93       	push	r26
    1206:	bf 93       	push	r27
    1208:	ef 93       	push	r30
    120a:	ff 93       	push	r31
    120c:	29 b1       	in	r18, 0x09	; 9
    120e:	80 91 a8 0d 	lds	r24, 0x0DA8
    1212:	90 91 8d 0d 	lds	r25, 0x0D8D
    1216:	88 23       	and	r24, r24
    1218:	c1 f4       	brne	.+48     	; 0x124a <__vector_1+0x60>
    121a:	9b 30       	cpi	r25, 0x0B	; 11
    121c:	11 f4       	brne	.+4      	; 0x1222 <__vector_1+0x38>
    121e:	85 e0       	ldi	r24, 0x05	; 5
    1220:	85 bd       	out	0x25, r24	; 37
    1222:	93 50       	subi	r25, 0x03	; 3
    1224:	98 30       	cpi	r25, 0x08	; 8
    1226:	50 f4       	brcc	.+20     	; 0x123c <__vector_1+0x52>
    1228:	80 91 37 01 	lds	r24, 0x0137
    122c:	86 95       	lsr	r24
    122e:	80 93 37 01 	sts	0x0137, r24
    1232:	23 ff       	sbrs	r18, 3
    1234:	03 c0       	rjmp	.+6      	; 0x123c <__vector_1+0x52>
    1236:	80 68       	ori	r24, 0x80	; 128
    1238:	80 93 37 01 	sts	0x0137, r24
    123c:	83 e0       	ldi	r24, 0x03	; 3
    123e:	80 93 69 00 	sts	0x0069, r24
    1242:	81 e0       	ldi	r24, 0x01	; 1
    1244:	80 93 a8 0d 	sts	0x0DA8, r24
    1248:	12 c0       	rjmp	.+36     	; 0x126e <__vector_1+0x84>
    124a:	89 2f       	mov	r24, r25
    124c:	81 50       	subi	r24, 0x01	; 1
    124e:	80 93 8d 0d 	sts	0x0D8D, r24
    1252:	88 23       	and	r24, r24
    1254:	39 f4       	brne	.+14     	; 0x1264 <__vector_1+0x7a>
    1256:	80 91 37 01 	lds	r24, 0x0137
    125a:	0e 94 4f 08 	call	0x109e	; 0x109e <kb_decode>
    125e:	8b e0       	ldi	r24, 0x0B	; 11
    1260:	80 93 8d 0d 	sts	0x0D8D, r24
    1264:	82 e0       	ldi	r24, 0x02	; 2
    1266:	80 93 69 00 	sts	0x0069, r24
    126a:	10 92 a8 0d 	sts	0x0DA8, r1
    126e:	ff 91       	pop	r31
    1270:	ef 91       	pop	r30
    1272:	bf 91       	pop	r27
    1274:	af 91       	pop	r26
    1276:	9f 91       	pop	r25
    1278:	8f 91       	pop	r24
    127a:	7f 91       	pop	r23
    127c:	6f 91       	pop	r22
    127e:	5f 91       	pop	r21
    1280:	4f 91       	pop	r20
    1282:	3f 91       	pop	r19
    1284:	2f 91       	pop	r18
    1286:	0f 90       	pop	r0
    1288:	0f be       	out	0x3f, r0	; 63
    128a:	0f 90       	pop	r0
    128c:	1f 90       	pop	r1
    128e:	18 95       	reti

00001290 <printUnum>:
    1290:	0f 93       	push	r16
    1292:	1f 93       	push	r17
    1294:	cf 93       	push	r28
    1296:	df 93       	push	r29
    1298:	9c 01       	movw	r18, r24
    129a:	8b 01       	movw	r16, r22
    129c:	c0 e0       	ldi	r28, 0x00	; 0
    129e:	d0 e0       	ldi	r29, 0x00	; 0
    12a0:	e0 91 a6 0d 	lds	r30, 0x0DA6
    12a4:	f0 91 a7 0d 	lds	r31, 0x0DA7
    12a8:	31 97       	sbiw	r30, 0x01	; 1
    12aa:	f0 93 a7 0d 	sts	0x0DA7, r31
    12ae:	e0 93 a6 0d 	sts	0x0DA6, r30
    12b2:	c9 01       	movw	r24, r18
    12b4:	6a e0       	ldi	r22, 0x0A	; 10
    12b6:	70 e0       	ldi	r23, 0x00	; 0
    12b8:	0e 94 f8 16 	call	0x2df0	; 0x2df0 <__udivmodhi4>
    12bc:	80 5d       	subi	r24, 0xD0	; 208
    12be:	80 83       	st	Z, r24
    12c0:	c9 01       	movw	r24, r18
    12c2:	6a e0       	ldi	r22, 0x0A	; 10
    12c4:	70 e0       	ldi	r23, 0x00	; 0
    12c6:	0e 94 f8 16 	call	0x2df0	; 0x2df0 <__udivmodhi4>
    12ca:	9b 01       	movw	r18, r22
    12cc:	21 96       	adiw	r28, 0x01	; 1
    12ce:	61 15       	cp	r22, r1
    12d0:	71 05       	cpc	r23, r1
    12d2:	31 f7       	brne	.-52     	; 0x12a0 <printUnum+0x10>
    12d4:	e0 91 a6 0d 	lds	r30, 0x0DA6
    12d8:	f0 91 a7 0d 	lds	r31, 0x0DA7
    12dc:	81 91       	ld	r24, Z+
    12de:	f0 93 a7 0d 	sts	0x0DA7, r31
    12e2:	e0 93 a6 0d 	sts	0x0DA6, r30
    12e6:	90 e0       	ldi	r25, 0x00	; 0
    12e8:	b8 01       	movw	r22, r16
    12ea:	0e 94 d6 17 	call	0x2fac	; 0x2fac <fputc>
    12ee:	21 97       	sbiw	r28, 0x01	; 1
    12f0:	89 f7       	brne	.-30     	; 0x12d4 <printUnum+0x44>
    12f2:	df 91       	pop	r29
    12f4:	cf 91       	pop	r28
    12f6:	1f 91       	pop	r17
    12f8:	0f 91       	pop	r16
    12fa:	08 95       	ret

000012fc <printnum>:
    12fc:	ef 92       	push	r14
    12fe:	ff 92       	push	r15
    1300:	0f 93       	push	r16
    1302:	1f 93       	push	r17
    1304:	cf 93       	push	r28
    1306:	df 93       	push	r29
    1308:	ec 01       	movw	r28, r24
    130a:	7b 01       	movw	r14, r22
    130c:	97 ff       	sbrs	r25, 7
    130e:	07 c0       	rjmp	.+14     	; 0x131e <printnum+0x22>
    1310:	d0 95       	com	r29
    1312:	c1 95       	neg	r28
    1314:	df 4f       	sbci	r29, 0xFF	; 255
    1316:	8d e2       	ldi	r24, 0x2D	; 45
    1318:	90 e0       	ldi	r25, 0x00	; 0
    131a:	0e 94 d6 17 	call	0x2fac	; 0x2fac <fputc>
    131e:	00 e0       	ldi	r16, 0x00	; 0
    1320:	10 e0       	ldi	r17, 0x00	; 0
    1322:	e0 91 a6 0d 	lds	r30, 0x0DA6
    1326:	f0 91 a7 0d 	lds	r31, 0x0DA7
    132a:	31 97       	sbiw	r30, 0x01	; 1
    132c:	f0 93 a7 0d 	sts	0x0DA7, r31
    1330:	e0 93 a6 0d 	sts	0x0DA6, r30
    1334:	ce 01       	movw	r24, r28
    1336:	6a e0       	ldi	r22, 0x0A	; 10
    1338:	70 e0       	ldi	r23, 0x00	; 0
    133a:	0e 94 0c 17 	call	0x2e18	; 0x2e18 <__divmodhi4>
    133e:	80 5d       	subi	r24, 0xD0	; 208
    1340:	80 83       	st	Z, r24
    1342:	ce 01       	movw	r24, r28
    1344:	6a e0       	ldi	r22, 0x0A	; 10
    1346:	70 e0       	ldi	r23, 0x00	; 0
    1348:	0e 94 0c 17 	call	0x2e18	; 0x2e18 <__divmodhi4>
    134c:	eb 01       	movw	r28, r22
    134e:	0f 5f       	subi	r16, 0xFF	; 255
    1350:	1f 4f       	sbci	r17, 0xFF	; 255
    1352:	16 16       	cp	r1, r22
    1354:	17 06       	cpc	r1, r23
    1356:	2c f3       	brlt	.-54     	; 0x1322 <printnum+0x26>
    1358:	e0 91 a6 0d 	lds	r30, 0x0DA6
    135c:	f0 91 a7 0d 	lds	r31, 0x0DA7
    1360:	81 91       	ld	r24, Z+
    1362:	f0 93 a7 0d 	sts	0x0DA7, r31
    1366:	e0 93 a6 0d 	sts	0x0DA6, r30
    136a:	90 e0       	ldi	r25, 0x00	; 0
    136c:	b7 01       	movw	r22, r14
    136e:	0e 94 d6 17 	call	0x2fac	; 0x2fac <fputc>
    1372:	01 50       	subi	r16, 0x01	; 1
    1374:	10 40       	sbci	r17, 0x00	; 0
    1376:	81 f7       	brne	.-32     	; 0x1358 <printnum+0x5c>
    1378:	df 91       	pop	r29
    137a:	cf 91       	pop	r28
    137c:	1f 91       	pop	r17
    137e:	0f 91       	pop	r16
    1380:	ff 90       	pop	r15
    1382:	ef 90       	pop	r14
    1384:	08 95       	ret

00001386 <printline>:
    1386:	cf 93       	push	r28
    1388:	df 93       	push	r29
    138a:	ec 01       	movw	r28, r24
    138c:	e0 91 a3 0d 	lds	r30, 0x0DA3
    1390:	f0 91 a4 0d 	lds	r31, 0x0DA4
    1394:	80 81       	ld	r24, Z
    1396:	91 81       	ldd	r25, Z+1	; 0x01
    1398:	33 96       	adiw	r30, 0x03	; 3
    139a:	f0 93 a4 0d 	sts	0x0DA4, r31
    139e:	e0 93 a3 0d 	sts	0x0DA3, r30
    13a2:	be 01       	movw	r22, r28
    13a4:	0e 94 7e 09 	call	0x12fc	; 0x12fc <printnum>
    13a8:	80 e2       	ldi	r24, 0x20	; 32
    13aa:	90 e0       	ldi	r25, 0x00	; 0
    13ac:	be 01       	movw	r22, r28
    13ae:	0e 94 d6 17 	call	0x2fac	; 0x2fac <fputc>
    13b2:	0d c0       	rjmp	.+26     	; 0x13ce <printline+0x48>
    13b4:	90 e0       	ldi	r25, 0x00	; 0
    13b6:	be 01       	movw	r22, r28
    13b8:	0e 94 d6 17 	call	0x2fac	; 0x2fac <fputc>
    13bc:	80 91 a3 0d 	lds	r24, 0x0DA3
    13c0:	90 91 a4 0d 	lds	r25, 0x0DA4
    13c4:	01 96       	adiw	r24, 0x01	; 1
    13c6:	90 93 a4 0d 	sts	0x0DA4, r25
    13ca:	80 93 a3 0d 	sts	0x0DA3, r24
    13ce:	e0 91 a3 0d 	lds	r30, 0x0DA3
    13d2:	f0 91 a4 0d 	lds	r31, 0x0DA4
    13d6:	80 81       	ld	r24, Z
    13d8:	8a 30       	cpi	r24, 0x0A	; 10
    13da:	61 f7       	brne	.-40     	; 0x13b4 <printline+0x2e>
    13dc:	31 96       	adiw	r30, 0x01	; 1
    13de:	f0 93 a4 0d 	sts	0x0DA4, r31
    13e2:	e0 93 a3 0d 	sts	0x0DA3, r30
    13e6:	ce 01       	movw	r24, r28
    13e8:	0e 94 79 06 	call	0xcf2	; 0xcf2 <newline>
    13ec:	df 91       	pop	r29
    13ee:	cf 91       	pop	r28
    13f0:	08 95       	ret

000013f2 <put_pixel>:
    13f2:	ff 92       	push	r15
    13f4:	0f 93       	push	r16
    13f6:	1f 93       	push	r17
    13f8:	18 2f       	mov	r17, r24
    13fa:	06 2f       	mov	r16, r22
    13fc:	f4 2e       	mov	r15, r20
    13fe:	60 91 c4 0d 	lds	r22, 0x0DC4
    1402:	70 91 c5 0d 	lds	r23, 0x0DC5
    1406:	8a ec       	ldi	r24, 0xCA	; 202
    1408:	90 e0       	ldi	r25, 0x00	; 0
    140a:	0e 94 d6 17 	call	0x2fac	; 0x2fac <fputc>
    140e:	60 91 c4 0d 	lds	r22, 0x0DC4
    1412:	70 91 c5 0d 	lds	r23, 0x0DC5
    1416:	81 2f       	mov	r24, r17
    1418:	90 e0       	ldi	r25, 0x00	; 0
    141a:	0e 94 d6 17 	call	0x2fac	; 0x2fac <fputc>
    141e:	60 91 c4 0d 	lds	r22, 0x0DC4
    1422:	70 91 c5 0d 	lds	r23, 0x0DC5
    1426:	80 2f       	mov	r24, r16
    1428:	90 e0       	ldi	r25, 0x00	; 0
    142a:	0e 94 d6 17 	call	0x2fac	; 0x2fac <fputc>
    142e:	60 91 c4 0d 	lds	r22, 0x0DC4
    1432:	70 91 c5 0d 	lds	r23, 0x0DC5
    1436:	8f 2d       	mov	r24, r15
    1438:	90 e0       	ldi	r25, 0x00	; 0
    143a:	0e 94 d6 17 	call	0x2fac	; 0x2fac <fputc>
    143e:	1f 91       	pop	r17
    1440:	0f 91       	pop	r16
    1442:	ff 90       	pop	r15
    1444:	08 95       	ret

00001446 <locate_cursor>:
    1446:	0f 93       	push	r16
    1448:	1f 93       	push	r17
    144a:	18 2f       	mov	r17, r24
    144c:	06 2f       	mov	r16, r22
    144e:	60 91 c4 0d 	lds	r22, 0x0DC4
    1452:	70 91 c5 0d 	lds	r23, 0x0DC5
    1456:	8d ec       	ldi	r24, 0xCD	; 205
    1458:	90 e0       	ldi	r25, 0x00	; 0
    145a:	0e 94 d6 17 	call	0x2fac	; 0x2fac <fputc>
    145e:	60 91 c4 0d 	lds	r22, 0x0DC4
    1462:	70 91 c5 0d 	lds	r23, 0x0DC5
    1466:	81 2f       	mov	r24, r17
    1468:	90 e0       	ldi	r25, 0x00	; 0
    146a:	0e 94 d6 17 	call	0x2fac	; 0x2fac <fputc>
    146e:	60 91 c4 0d 	lds	r22, 0x0DC4
    1472:	70 91 c5 0d 	lds	r23, 0x0DC5
    1476:	80 2f       	mov	r24, r16
    1478:	90 e0       	ldi	r25, 0x00	; 0
    147a:	0e 94 d6 17 	call	0x2fac	; 0x2fac <fputc>
    147e:	1f 91       	pop	r17
    1480:	0f 91       	pop	r16
    1482:	08 95       	ret

00001484 <paper_color>:
    1484:	1f 93       	push	r17
    1486:	18 2f       	mov	r17, r24
    1488:	60 91 c4 0d 	lds	r22, 0x0DC4
    148c:	70 91 c5 0d 	lds	r23, 0x0DC5
    1490:	8f ec       	ldi	r24, 0xCF	; 207
    1492:	90 e0       	ldi	r25, 0x00	; 0
    1494:	0e 94 d6 17 	call	0x2fac	; 0x2fac <fputc>
    1498:	60 91 c4 0d 	lds	r22, 0x0DC4
    149c:	70 91 c5 0d 	lds	r23, 0x0DC5
    14a0:	81 2f       	mov	r24, r17
    14a2:	90 e0       	ldi	r25, 0x00	; 0
    14a4:	0e 94 d6 17 	call	0x2fac	; 0x2fac <fputc>
    14a8:	1f 91       	pop	r17
    14aa:	08 95       	ret

000014ac <text_color>:
    14ac:	1f 93       	push	r17
    14ae:	18 2f       	mov	r17, r24
    14b0:	60 91 c4 0d 	lds	r22, 0x0DC4
    14b4:	70 91 c5 0d 	lds	r23, 0x0DC5
    14b8:	8e ec       	ldi	r24, 0xCE	; 206
    14ba:	90 e0       	ldi	r25, 0x00	; 0
    14bc:	0e 94 d6 17 	call	0x2fac	; 0x2fac <fputc>
    14c0:	60 91 c4 0d 	lds	r22, 0x0DC4
    14c4:	70 91 c5 0d 	lds	r23, 0x0DC5
    14c8:	81 2f       	mov	r24, r17
    14ca:	90 e0       	ldi	r25, 0x00	; 0
    14cc:	0e 94 d6 17 	call	0x2fac	; 0x2fac <fputc>
    14d0:	1f 91       	pop	r17
    14d2:	08 95       	ret

000014d4 <putchar_phy>:
    14d4:	88 b9       	out	0x08, r24	; 8
    14d6:	4e 99       	sbic	0x09, 6	; 9
    14d8:	fe cf       	rjmp	.-4      	; 0x14d6 <putchar_phy+0x2>
    14da:	5f 9a       	sbi	0x0b, 7	; 11
    14dc:	4e 9b       	sbis	0x09, 6	; 9
    14de:	fe cf       	rjmp	.-4      	; 0x14dc <putchar_phy+0x8>
    14e0:	5f 98       	cbi	0x0b, 7	; 11
    14e2:	88 30       	cpi	r24, 0x08	; 8
    14e4:	79 f4       	brne	.+30     	; 0x1504 <putchar_phy+0x30>
    14e6:	88 e0       	ldi	r24, 0x08	; 8
    14e8:	90 e0       	ldi	r25, 0x00	; 0
    14ea:	66 e1       	ldi	r22, 0x16	; 22
    14ec:	71 e0       	ldi	r23, 0x01	; 1
    14ee:	0e 94 d6 17 	call	0x2fac	; 0x2fac <fputc>
    14f2:	80 e2       	ldi	r24, 0x20	; 32
    14f4:	90 e0       	ldi	r25, 0x00	; 0
    14f6:	66 e1       	ldi	r22, 0x16	; 22
    14f8:	71 e0       	ldi	r23, 0x01	; 1
    14fa:	0e 94 d6 17 	call	0x2fac	; 0x2fac <fputc>
    14fe:	88 e0       	ldi	r24, 0x08	; 8
    1500:	90 e0       	ldi	r25, 0x00	; 0
    1502:	03 c0       	rjmp	.+6      	; 0x150a <putchar_phy+0x36>
    1504:	99 27       	eor	r25, r25
    1506:	87 fd       	sbrc	r24, 7
    1508:	90 95       	com	r25
    150a:	66 e1       	ldi	r22, 0x16	; 22
    150c:	71 e0       	ldi	r23, 0x01	; 1
    150e:	0e 94 d6 17 	call	0x2fac	; 0x2fac <fputc>
    1512:	80 e0       	ldi	r24, 0x00	; 0
    1514:	90 e0       	ldi	r25, 0x00	; 0
    1516:	08 95       	ret

00001518 <uart_ansi_rst_clr>:
    1518:	0f 93       	push	r16
    151a:	1f 93       	push	r17
    151c:	06 e1       	ldi	r16, 0x16	; 22
    151e:	11 e0       	ldi	r17, 0x01	; 1
    1520:	8b e1       	ldi	r24, 0x1B	; 27
    1522:	90 e0       	ldi	r25, 0x00	; 0
    1524:	b8 01       	movw	r22, r16
    1526:	0e 94 d6 17 	call	0x2fac	; 0x2fac <fputc>
    152a:	8b e5       	ldi	r24, 0x5B	; 91
    152c:	90 e0       	ldi	r25, 0x00	; 0
    152e:	b8 01       	movw	r22, r16
    1530:	0e 94 d6 17 	call	0x2fac	; 0x2fac <fputc>
    1534:	80 e3       	ldi	r24, 0x30	; 48
    1536:	90 e0       	ldi	r25, 0x00	; 0
    1538:	b8 01       	movw	r22, r16
    153a:	0e 94 d6 17 	call	0x2fac	; 0x2fac <fputc>
    153e:	8d e6       	ldi	r24, 0x6D	; 109
    1540:	90 e0       	ldi	r25, 0x00	; 0
    1542:	b8 01       	movw	r22, r16
    1544:	0e 94 d6 17 	call	0x2fac	; 0x2fac <fputc>
    1548:	8b e1       	ldi	r24, 0x1B	; 27
    154a:	90 e0       	ldi	r25, 0x00	; 0
    154c:	b8 01       	movw	r22, r16
    154e:	0e 94 d6 17 	call	0x2fac	; 0x2fac <fputc>
    1552:	8b e5       	ldi	r24, 0x5B	; 91
    1554:	90 e0       	ldi	r25, 0x00	; 0
    1556:	b8 01       	movw	r22, r16
    1558:	0e 94 d6 17 	call	0x2fac	; 0x2fac <fputc>
    155c:	88 e4       	ldi	r24, 0x48	; 72
    155e:	90 e0       	ldi	r25, 0x00	; 0
    1560:	b8 01       	movw	r22, r16
    1562:	0e 94 d6 17 	call	0x2fac	; 0x2fac <fputc>
    1566:	8b e1       	ldi	r24, 0x1B	; 27
    1568:	90 e0       	ldi	r25, 0x00	; 0
    156a:	b8 01       	movw	r22, r16
    156c:	0e 94 d6 17 	call	0x2fac	; 0x2fac <fputc>
    1570:	8b e5       	ldi	r24, 0x5B	; 91
    1572:	90 e0       	ldi	r25, 0x00	; 0
    1574:	b8 01       	movw	r22, r16
    1576:	0e 94 d6 17 	call	0x2fac	; 0x2fac <fputc>
    157a:	8a e4       	ldi	r24, 0x4A	; 74
    157c:	90 e0       	ldi	r25, 0x00	; 0
    157e:	b8 01       	movw	r22, r16
    1580:	0e 94 d6 17 	call	0x2fac	; 0x2fac <fputc>
    1584:	1f 91       	pop	r17
    1586:	0f 91       	pop	r16
    1588:	08 95       	ret

0000158a <parse_step4>:
    158a:	1f 93       	push	r17
    158c:	cf 93       	push	r28
    158e:	df 93       	push	r29
    1590:	0e 94 3e 05 	call	0xa7c	; 0xa7c <ignorespace>
    1594:	e0 91 8e 0d 	lds	r30, 0x0D8E
    1598:	f0 91 8f 0d 	lds	r31, 0x0D8F
    159c:	90 81       	ld	r25, Z
    159e:	9d 32       	cpi	r25, 0x2D	; 45
    15a0:	61 f4       	brne	.+24     	; 0x15ba <parse_step4+0x30>
    15a2:	31 96       	adiw	r30, 0x01	; 1
    15a4:	f0 93 8f 0d 	sts	0x0D8F, r31
    15a8:	e0 93 8e 0d 	sts	0x0D8E, r30
    15ac:	0e 94 c5 0a 	call	0x158a	; 0x158a <parse_step4>
    15b0:	66 27       	eor	r22, r22
    15b2:	77 27       	eor	r23, r23
    15b4:	68 1b       	sub	r22, r24
    15b6:	79 0b       	sbc	r23, r25
    15b8:	0b c1       	rjmp	.+534    	; 0x17d0 <parse_step4+0x246>
    15ba:	90 33       	cpi	r25, 0x30	; 48
    15bc:	31 f4       	brne	.+12     	; 0x15ca <parse_step4+0x40>
    15be:	31 96       	adiw	r30, 0x01	; 1
    15c0:	f0 93 8f 0d 	sts	0x0D8F, r31
    15c4:	e0 93 8e 0d 	sts	0x0D8E, r30
    15c8:	59 c0       	rjmp	.+178    	; 0x167c <parse_step4+0xf2>
    15ca:	89 2f       	mov	r24, r25
    15cc:	81 53       	subi	r24, 0x31	; 49
    15ce:	89 30       	cpi	r24, 0x09	; 9
    15d0:	10 f5       	brcc	.+68     	; 0x1616 <parse_step4+0x8c>
    15d2:	60 e0       	ldi	r22, 0x00	; 0
    15d4:	70 e0       	ldi	r23, 0x00	; 0
    15d6:	cb 01       	movw	r24, r22
    15d8:	f3 e0       	ldi	r31, 0x03	; 3
    15da:	88 0f       	add	r24, r24
    15dc:	99 1f       	adc	r25, r25
    15de:	fa 95       	dec	r31
    15e0:	e1 f7       	brne	.-8      	; 0x15da <parse_step4+0x50>
    15e2:	66 0f       	add	r22, r22
    15e4:	77 1f       	adc	r23, r23
    15e6:	86 0f       	add	r24, r22
    15e8:	97 1f       	adc	r25, r23
    15ea:	a0 91 8e 0d 	lds	r26, 0x0D8E
    15ee:	b0 91 8f 0d 	lds	r27, 0x0D8F
    15f2:	fd 01       	movw	r30, r26
    15f4:	21 91       	ld	r18, Z+
    15f6:	62 2f       	mov	r22, r18
    15f8:	70 e0       	ldi	r23, 0x00	; 0
    15fa:	60 53       	subi	r22, 0x30	; 48
    15fc:	70 40       	sbci	r23, 0x00	; 0
    15fe:	68 0f       	add	r22, r24
    1600:	79 1f       	adc	r23, r25
    1602:	f0 93 8f 0d 	sts	0x0D8F, r31
    1606:	e0 93 8e 0d 	sts	0x0D8E, r30
    160a:	11 96       	adiw	r26, 0x01	; 1
    160c:	8c 91       	ld	r24, X
    160e:	80 53       	subi	r24, 0x30	; 48
    1610:	8a 30       	cpi	r24, 0x0A	; 10
    1612:	08 f3       	brcs	.-62     	; 0x15d6 <parse_step4+0x4c>
    1614:	dd c0       	rjmp	.+442    	; 0x17d0 <parse_step4+0x246>
    1616:	89 2f       	mov	r24, r25
    1618:	81 54       	subi	r24, 0x41	; 65
    161a:	8a 31       	cpi	r24, 0x1A	; 26
    161c:	08 f0       	brcs	.+2      	; 0x1620 <parse_step4+0x96>
    161e:	b9 c0       	rjmp	.+370    	; 0x1792 <parse_step4+0x208>
    1620:	9f 01       	movw	r18, r30
    1622:	2f 5f       	subi	r18, 0xFF	; 255
    1624:	3f 4f       	sbci	r19, 0xFF	; 255
    1626:	81 81       	ldd	r24, Z+1	; 0x01
    1628:	81 54       	subi	r24, 0x41	; 65
    162a:	8a 31       	cpi	r24, 0x1A	; 26
    162c:	98 f0       	brcs	.+38     	; 0x1654 <parse_step4+0xca>
    162e:	89 2f       	mov	r24, r25
    1630:	90 e0       	ldi	r25, 0x00	; 0
    1632:	81 54       	subi	r24, 0x41	; 65
    1634:	90 40       	sbci	r25, 0x00	; 0
    1636:	88 0f       	add	r24, r24
    1638:	99 1f       	adc	r25, r25
    163a:	e0 91 ad 0d 	lds	r30, 0x0DAD
    163e:	f0 91 ae 0d 	lds	r31, 0x0DAE
    1642:	e8 0f       	add	r30, r24
    1644:	f9 1f       	adc	r31, r25
    1646:	80 81       	ld	r24, Z
    1648:	91 81       	ldd	r25, Z+1	; 0x01
    164a:	30 93 8f 0d 	sts	0x0D8F, r19
    164e:	20 93 8e 0d 	sts	0x0D8E, r18
    1652:	54 c0       	rjmp	.+168    	; 0x16fc <parse_step4+0x172>
    1654:	82 ec       	ldi	r24, 0xC2	; 194
    1656:	95 e0       	ldi	r25, 0x05	; 5
    1658:	0e 94 4e 05 	call	0xa9c	; 0xa9c <scantable>
    165c:	10 91 9f 0d 	lds	r17, 0x0D9F
    1660:	15 30       	cpi	r17, 0x05	; 5
    1662:	11 f4       	brne	.+4      	; 0x1668 <parse_step4+0xde>
    1664:	8e e0       	ldi	r24, 0x0E	; 14
    1666:	08 c0       	rjmp	.+16     	; 0x1678 <parse_step4+0xee>
    1668:	e0 91 8e 0d 	lds	r30, 0x0D8E
    166c:	f0 91 8f 0d 	lds	r31, 0x0D8F
    1670:	80 81       	ld	r24, Z
    1672:	88 32       	cpi	r24, 0x28	; 40
    1674:	31 f0       	breq	.+12     	; 0x1682 <parse_step4+0xf8>
    1676:	85 e0       	ldi	r24, 0x05	; 5
    1678:	80 93 bf 0d 	sts	0x0DBF, r24
    167c:	60 e0       	ldi	r22, 0x00	; 0
    167e:	70 e0       	ldi	r23, 0x00	; 0
    1680:	a7 c0       	rjmp	.+334    	; 0x17d0 <parse_step4+0x246>
    1682:	31 96       	adiw	r30, 0x01	; 1
    1684:	f0 93 8f 0d 	sts	0x0D8F, r31
    1688:	e0 93 8e 0d 	sts	0x0D8E, r30
    168c:	0e 94 58 0c 	call	0x18b0	; 0x18b0 <parse_step1>
    1690:	ec 01       	movw	r28, r24
    1692:	e0 91 8e 0d 	lds	r30, 0x0D8E
    1696:	f0 91 8f 0d 	lds	r31, 0x0D8F
    169a:	80 81       	ld	r24, Z
    169c:	89 32       	cpi	r24, 0x29	; 41
    169e:	09 f0       	breq	.+2      	; 0x16a2 <parse_step4+0x118>
    16a0:	8e c0       	rjmp	.+284    	; 0x17be <parse_step4+0x234>
    16a2:	31 96       	adiw	r30, 0x01	; 1
    16a4:	f0 93 8f 0d 	sts	0x0D8F, r31
    16a8:	e0 93 8e 0d 	sts	0x0D8E, r30
    16ac:	12 30       	cpi	r17, 0x02	; 2
    16ae:	09 f1       	breq	.+66     	; 0x16f2 <parse_step4+0x168>
    16b0:	13 30       	cpi	r17, 0x03	; 3
    16b2:	30 f4       	brcc	.+12     	; 0x16c0 <parse_step4+0x136>
    16b4:	11 23       	and	r17, r17
    16b6:	51 f0       	breq	.+20     	; 0x16cc <parse_step4+0x142>
    16b8:	11 30       	cpi	r17, 0x01	; 1
    16ba:	09 f0       	breq	.+2      	; 0x16be <parse_step4+0x134>
    16bc:	6a c0       	rjmp	.+212    	; 0x1792 <parse_step4+0x208>
    16be:	12 c0       	rjmp	.+36     	; 0x16e4 <parse_step4+0x15a>
    16c0:	13 30       	cpi	r17, 0x03	; 3
    16c2:	f1 f0       	breq	.+60     	; 0x1700 <parse_step4+0x176>
    16c4:	14 30       	cpi	r17, 0x04	; 4
    16c6:	09 f0       	breq	.+2      	; 0x16ca <parse_step4+0x140>
    16c8:	64 c0       	rjmp	.+200    	; 0x1792 <parse_step4+0x208>
    16ca:	36 c0       	rjmp	.+108    	; 0x1738 <parse_step4+0x1ae>
    16cc:	8c e0       	ldi	r24, 0x0C	; 12
    16ce:	c0 35       	cpi	r28, 0x50	; 80
    16d0:	d8 07       	cpc	r29, r24
    16d2:	14 f0       	brlt	.+4      	; 0x16d8 <parse_step4+0x14e>
    16d4:	83 e1       	ldi	r24, 0x13	; 19
    16d6:	d0 cf       	rjmp	.-96     	; 0x1678 <parse_step4+0xee>
    16d8:	c5 5c       	subi	r28, 0xC5	; 197
    16da:	de 4f       	sbci	r29, 0xFE	; 254
    16dc:	88 81       	ld	r24, Y
    16de:	68 2f       	mov	r22, r24
    16e0:	70 e0       	ldi	r23, 0x00	; 0
    16e2:	76 c0       	rjmp	.+236    	; 0x17d0 <parse_step4+0x246>
    16e4:	be 01       	movw	r22, r28
    16e6:	d7 ff       	sbrs	r29, 7
    16e8:	73 c0       	rjmp	.+230    	; 0x17d0 <parse_step4+0x246>
    16ea:	70 95       	com	r23
    16ec:	61 95       	neg	r22
    16ee:	7f 4f       	sbci	r23, 0xFF	; 255
    16f0:	6f c0       	rjmp	.+222    	; 0x17d0 <parse_step4+0x246>
    16f2:	0e 94 70 17 	call	0x2ee0	; 0x2ee0 <rand>
    16f6:	be 01       	movw	r22, r28
    16f8:	0e 94 0c 17 	call	0x2e18	; 0x2e18 <__divmodhi4>
    16fc:	bc 01       	movw	r22, r24
    16fe:	68 c0       	rjmp	.+208    	; 0x17d0 <parse_step4+0x246>
    1700:	c8 30       	cpi	r28, 0x08	; 8
    1702:	d1 05       	cpc	r29, r1
    1704:	e0 f4       	brcc	.+56     	; 0x173e <parse_step4+0x1b4>
    1706:	21 e0       	ldi	r18, 0x01	; 1
    1708:	30 e0       	ldi	r19, 0x00	; 0
    170a:	02 c0       	rjmp	.+4      	; 0x1710 <parse_step4+0x186>
    170c:	22 0f       	add	r18, r18
    170e:	33 1f       	adc	r19, r19
    1710:	ca 95       	dec	r28
    1712:	e2 f7       	brpl	.-8      	; 0x170c <parse_step4+0x182>
    1714:	81 b1       	in	r24, 0x01	; 1
    1716:	90 e0       	ldi	r25, 0x00	; 0
    1718:	82 23       	and	r24, r18
    171a:	93 23       	and	r25, r19
    171c:	89 2b       	or	r24, r25
    171e:	31 f5       	brne	.+76     	; 0x176c <parse_step4+0x1e2>
    1720:	80 b1       	in	r24, 0x00	; 0
    1722:	68 2f       	mov	r22, r24
    1724:	70 e0       	ldi	r23, 0x00	; 0
    1726:	62 23       	and	r22, r18
    1728:	73 23       	and	r23, r19
    172a:	61 15       	cp	r22, r1
    172c:	71 05       	cpc	r23, r1
    172e:	09 f4       	brne	.+2      	; 0x1732 <parse_step4+0x1a8>
    1730:	4f c0       	rjmp	.+158    	; 0x17d0 <parse_step4+0x246>
    1732:	61 e0       	ldi	r22, 0x01	; 1
    1734:	70 e0       	ldi	r23, 0x00	; 0
    1736:	4c c0       	rjmp	.+152    	; 0x17d0 <parse_step4+0x246>
    1738:	c8 30       	cpi	r28, 0x08	; 8
    173a:	d1 05       	cpc	r29, r1
    173c:	10 f0       	brcs	.+4      	; 0x1742 <parse_step4+0x1b8>
    173e:	8c e0       	ldi	r24, 0x0C	; 12
    1740:	9b cf       	rjmp	.-202    	; 0x1678 <parse_step4+0xee>
    1742:	c0 93 7c 00 	sts	0x007C, r28
    1746:	21 e0       	ldi	r18, 0x01	; 1
    1748:	30 e0       	ldi	r19, 0x00	; 0
    174a:	02 c0       	rjmp	.+4      	; 0x1750 <parse_step4+0x1c6>
    174c:	22 0f       	add	r18, r18
    174e:	33 1f       	adc	r19, r19
    1750:	ca 95       	dec	r28
    1752:	e2 f7       	brpl	.-8      	; 0x174c <parse_step4+0x1c2>
    1754:	42 b1       	in	r20, 0x02	; 2
    1756:	92 b1       	in	r25, 0x02	; 2
    1758:	82 2f       	mov	r24, r18
    175a:	80 95       	com	r24
    175c:	89 23       	and	r24, r25
    175e:	82 b9       	out	0x02, r24	; 2
    1760:	81 b1       	in	r24, 0x01	; 1
    1762:	90 e0       	ldi	r25, 0x00	; 0
    1764:	28 23       	and	r18, r24
    1766:	39 23       	and	r19, r25
    1768:	23 2b       	or	r18, r19
    176a:	11 f0       	breq	.+4      	; 0x1770 <parse_step4+0x1e6>
    176c:	8d e0       	ldi	r24, 0x0D	; 13
    176e:	84 cf       	rjmp	.-248    	; 0x1678 <parse_step4+0xee>
    1770:	80 91 7a 00 	lds	r24, 0x007A
    1774:	80 64       	ori	r24, 0x40	; 64
    1776:	80 93 7a 00 	sts	0x007A, r24
    177a:	80 91 7a 00 	lds	r24, 0x007A
    177e:	86 fd       	sbrc	r24, 6
    1780:	fc cf       	rjmp	.-8      	; 0x177a <parse_step4+0x1f0>
    1782:	42 b9       	out	0x02, r20	; 2
    1784:	60 91 78 00 	lds	r22, 0x0078
    1788:	70 91 79 00 	lds	r23, 0x0079
    178c:	76 95       	lsr	r23
    178e:	67 95       	ror	r22
    1790:	1f c0       	rjmp	.+62     	; 0x17d0 <parse_step4+0x246>
    1792:	e0 91 8e 0d 	lds	r30, 0x0D8E
    1796:	f0 91 8f 0d 	lds	r31, 0x0D8F
    179a:	80 81       	ld	r24, Z
    179c:	88 32       	cpi	r24, 0x28	; 40
    179e:	b9 f4       	brne	.+46     	; 0x17ce <parse_step4+0x244>
    17a0:	31 96       	adiw	r30, 0x01	; 1
    17a2:	f0 93 8f 0d 	sts	0x0D8F, r31
    17a6:	e0 93 8e 0d 	sts	0x0D8E, r30
    17aa:	0e 94 58 0c 	call	0x18b0	; 0x18b0 <parse_step1>
    17ae:	bc 01       	movw	r22, r24
    17b0:	e0 91 8e 0d 	lds	r30, 0x0D8E
    17b4:	f0 91 8f 0d 	lds	r31, 0x0D8F
    17b8:	80 81       	ld	r24, Z
    17ba:	89 32       	cpi	r24, 0x29	; 41
    17bc:	11 f0       	breq	.+4      	; 0x17c2 <parse_step4+0x238>
    17be:	86 e0       	ldi	r24, 0x06	; 6
    17c0:	5b cf       	rjmp	.-330    	; 0x1678 <parse_step4+0xee>
    17c2:	31 96       	adiw	r30, 0x01	; 1
    17c4:	f0 93 8f 0d 	sts	0x0D8F, r31
    17c8:	e0 93 8e 0d 	sts	0x0D8E, r30
    17cc:	01 c0       	rjmp	.+2      	; 0x17d0 <parse_step4+0x246>
    17ce:	01 c0       	rjmp	.+2      	; 0x17d2 <parse_step4+0x248>
    17d0:	cb 01       	movw	r24, r22
    17d2:	df 91       	pop	r29
    17d4:	cf 91       	pop	r28
    17d6:	1f 91       	pop	r17
    17d8:	08 95       	ret

000017da <parse_step3>:
    17da:	1f 93       	push	r17
    17dc:	cf 93       	push	r28
    17de:	df 93       	push	r29
    17e0:	0e 94 c5 0a 	call	0x158a	; 0x158a <parse_step4>
    17e4:	ec 01       	movw	r28, r24
    17e6:	0e 94 3e 05 	call	0xa7c	; 0xa7c <ignorespace>
    17ea:	1b e0       	ldi	r17, 0x0B	; 11
    17ec:	e0 91 8e 0d 	lds	r30, 0x0D8E
    17f0:	f0 91 8f 0d 	lds	r31, 0x0D8F
    17f4:	80 81       	ld	r24, Z
    17f6:	8a 32       	cpi	r24, 0x2A	; 42
    17f8:	81 f4       	brne	.+32     	; 0x181a <parse_step3+0x40>
    17fa:	31 96       	adiw	r30, 0x01	; 1
    17fc:	f0 93 8f 0d 	sts	0x0D8F, r31
    1800:	e0 93 8e 0d 	sts	0x0D8E, r30
    1804:	0e 94 c5 0a 	call	0x158a	; 0x158a <parse_step4>
    1808:	9e 01       	movw	r18, r28
    180a:	28 9f       	mul	r18, r24
    180c:	e0 01       	movw	r28, r0
    180e:	29 9f       	mul	r18, r25
    1810:	d0 0d       	add	r29, r0
    1812:	38 9f       	mul	r19, r24
    1814:	d0 0d       	add	r29, r0
    1816:	11 24       	eor	r1, r1
    1818:	e9 cf       	rjmp	.-46     	; 0x17ec <parse_step3+0x12>
    181a:	8f 32       	cpi	r24, 0x2F	; 47
    181c:	91 f4       	brne	.+36     	; 0x1842 <parse_step3+0x68>
    181e:	31 96       	adiw	r30, 0x01	; 1
    1820:	f0 93 8f 0d 	sts	0x0D8F, r31
    1824:	e0 93 8e 0d 	sts	0x0D8E, r30
    1828:	0e 94 c5 0a 	call	0x158a	; 0x158a <parse_step4>
    182c:	bc 01       	movw	r22, r24
    182e:	00 97       	sbiw	r24, 0x00	; 0
    1830:	29 f0       	breq	.+10     	; 0x183c <parse_step3+0x62>
    1832:	ce 01       	movw	r24, r28
    1834:	0e 94 0c 17 	call	0x2e18	; 0x2e18 <__divmodhi4>
    1838:	eb 01       	movw	r28, r22
    183a:	d8 cf       	rjmp	.-80     	; 0x17ec <parse_step3+0x12>
    183c:	10 93 bf 0d 	sts	0x0DBF, r17
    1840:	d5 cf       	rjmp	.-86     	; 0x17ec <parse_step3+0x12>
    1842:	ce 01       	movw	r24, r28
    1844:	df 91       	pop	r29
    1846:	cf 91       	pop	r28
    1848:	1f 91       	pop	r17
    184a:	08 95       	ret

0000184c <parse_step2>:
    184c:	cf 93       	push	r28
    184e:	df 93       	push	r29
    1850:	e0 91 8e 0d 	lds	r30, 0x0D8E
    1854:	f0 91 8f 0d 	lds	r31, 0x0D8F
    1858:	e0 81       	ld	r30, Z
    185a:	ed 32       	cpi	r30, 0x2D	; 45
    185c:	31 f0       	breq	.+12     	; 0x186a <parse_step2+0x1e>
    185e:	eb 32       	cpi	r30, 0x2B	; 43
    1860:	21 f0       	breq	.+8      	; 0x186a <parse_step2+0x1e>
    1862:	0e 94 ed 0b 	call	0x17da	; 0x17da <parse_step3>
    1866:	ec 01       	movw	r28, r24
    1868:	02 c0       	rjmp	.+4      	; 0x186e <parse_step2+0x22>
    186a:	c0 e0       	ldi	r28, 0x00	; 0
    186c:	d0 e0       	ldi	r29, 0x00	; 0
    186e:	e0 91 8e 0d 	lds	r30, 0x0D8E
    1872:	f0 91 8f 0d 	lds	r31, 0x0D8F
    1876:	80 81       	ld	r24, Z
    1878:	8d 32       	cpi	r24, 0x2D	; 45
    187a:	51 f4       	brne	.+20     	; 0x1890 <parse_step2+0x44>
    187c:	31 96       	adiw	r30, 0x01	; 1
    187e:	f0 93 8f 0d 	sts	0x0D8F, r31
    1882:	e0 93 8e 0d 	sts	0x0D8E, r30
    1886:	0e 94 ed 0b 	call	0x17da	; 0x17da <parse_step3>
    188a:	c8 1b       	sub	r28, r24
    188c:	d9 0b       	sbc	r29, r25
    188e:	ef cf       	rjmp	.-34     	; 0x186e <parse_step2+0x22>
    1890:	8b 32       	cpi	r24, 0x2B	; 43
    1892:	51 f4       	brne	.+20     	; 0x18a8 <parse_step2+0x5c>
    1894:	31 96       	adiw	r30, 0x01	; 1
    1896:	f0 93 8f 0d 	sts	0x0D8F, r31
    189a:	e0 93 8e 0d 	sts	0x0D8E, r30
    189e:	0e 94 ed 0b 	call	0x17da	; 0x17da <parse_step3>
    18a2:	c8 0f       	add	r28, r24
    18a4:	d9 1f       	adc	r29, r25
    18a6:	e3 cf       	rjmp	.-58     	; 0x186e <parse_step2+0x22>
    18a8:	ce 01       	movw	r24, r28
    18aa:	df 91       	pop	r29
    18ac:	cf 91       	pop	r28
    18ae:	08 95       	ret

000018b0 <parse_step1>:
    18b0:	cf 93       	push	r28
    18b2:	df 93       	push	r29
    18b4:	0e 94 26 0c 	call	0x184c	; 0x184c <parse_step2>
    18b8:	ec 01       	movw	r28, r24
    18ba:	80 91 bf 0d 	lds	r24, 0x0DBF
    18be:	88 23       	and	r24, r24
    18c0:	09 f0       	breq	.+2      	; 0x18c4 <parse_step1+0x14>
    18c2:	46 c0       	rjmp	.+140    	; 0x1950 <parse_step1+0xa0>
    18c4:	8d ed       	ldi	r24, 0xDD	; 221
    18c6:	95 e0       	ldi	r25, 0x05	; 5
    18c8:	0e 94 4e 05 	call	0xa9c	; 0xa9c <scantable>
    18cc:	80 91 9f 0d 	lds	r24, 0x0D9F
    18d0:	87 30       	cpi	r24, 0x07	; 7
    18d2:	f1 f1       	breq	.+124    	; 0x1950 <parse_step1+0xa0>
    18d4:	83 30       	cpi	r24, 0x03	; 3
    18d6:	29 f1       	breq	.+74     	; 0x1922 <parse_step1+0x72>
    18d8:	84 30       	cpi	r24, 0x04	; 4
    18da:	28 f4       	brcc	.+10     	; 0x18e6 <parse_step1+0x36>
    18dc:	81 30       	cpi	r24, 0x01	; 1
    18de:	99 f0       	breq	.+38     	; 0x1906 <parse_step1+0x56>
    18e0:	82 30       	cpi	r24, 0x02	; 2
    18e2:	c0 f4       	brcc	.+48     	; 0x1914 <parse_step1+0x64>
    18e4:	09 c0       	rjmp	.+18     	; 0x18f8 <parse_step1+0x48>
    18e6:	85 30       	cpi	r24, 0x05	; 5
    18e8:	51 f1       	breq	.+84     	; 0x193e <parse_step1+0x8e>
    18ea:	85 30       	cpi	r24, 0x05	; 5
    18ec:	08 f1       	brcs	.+66     	; 0x1930 <parse_step1+0x80>
    18ee:	86 30       	cpi	r24, 0x06	; 6
    18f0:	51 f0       	breq	.+20     	; 0x1906 <parse_step1+0x56>
    18f2:	c0 e0       	ldi	r28, 0x00	; 0
    18f4:	d0 e0       	ldi	r29, 0x00	; 0
    18f6:	2c c0       	rjmp	.+88     	; 0x1950 <parse_step1+0xa0>
    18f8:	0e 94 26 0c 	call	0x184c	; 0x184c <parse_step2>
    18fc:	20 e0       	ldi	r18, 0x00	; 0
    18fe:	c8 17       	cp	r28, r24
    1900:	d9 07       	cpc	r29, r25
    1902:	24 f1       	brlt	.+72     	; 0x194c <parse_step1+0x9c>
    1904:	22 c0       	rjmp	.+68     	; 0x194a <parse_step1+0x9a>
    1906:	0e 94 26 0c 	call	0x184c	; 0x184c <parse_step2>
    190a:	20 e0       	ldi	r18, 0x00	; 0
    190c:	c8 17       	cp	r28, r24
    190e:	d9 07       	cpc	r29, r25
    1910:	e1 f4       	brne	.+56     	; 0x194a <parse_step1+0x9a>
    1912:	1c c0       	rjmp	.+56     	; 0x194c <parse_step1+0x9c>
    1914:	0e 94 26 0c 	call	0x184c	; 0x184c <parse_step2>
    1918:	20 e0       	ldi	r18, 0x00	; 0
    191a:	8c 17       	cp	r24, r28
    191c:	9d 07       	cpc	r25, r29
    191e:	b4 f4       	brge	.+44     	; 0x194c <parse_step1+0x9c>
    1920:	14 c0       	rjmp	.+40     	; 0x194a <parse_step1+0x9a>
    1922:	0e 94 26 0c 	call	0x184c	; 0x184c <parse_step2>
    1926:	20 e0       	ldi	r18, 0x00	; 0
    1928:	c8 17       	cp	r28, r24
    192a:	d9 07       	cpc	r29, r25
    192c:	79 f4       	brne	.+30     	; 0x194c <parse_step1+0x9c>
    192e:	0d c0       	rjmp	.+26     	; 0x194a <parse_step1+0x9a>
    1930:	0e 94 26 0c 	call	0x184c	; 0x184c <parse_step2>
    1934:	20 e0       	ldi	r18, 0x00	; 0
    1936:	8c 17       	cp	r24, r28
    1938:	9d 07       	cpc	r25, r29
    193a:	44 f0       	brlt	.+16     	; 0x194c <parse_step1+0x9c>
    193c:	06 c0       	rjmp	.+12     	; 0x194a <parse_step1+0x9a>
    193e:	0e 94 26 0c 	call	0x184c	; 0x184c <parse_step2>
    1942:	20 e0       	ldi	r18, 0x00	; 0
    1944:	c8 17       	cp	r28, r24
    1946:	d9 07       	cpc	r29, r25
    1948:	0c f4       	brge	.+2      	; 0x194c <parse_step1+0x9c>
    194a:	21 e0       	ldi	r18, 0x01	; 1
    194c:	c2 2f       	mov	r28, r18
    194e:	d0 e0       	ldi	r29, 0x00	; 0
    1950:	ce 01       	movw	r24, r28
    1952:	df 91       	pop	r29
    1954:	cf 91       	pop	r28
    1956:	08 95       	ret

00001958 <parser_loop>:
    1958:	2f 92       	push	r2
    195a:	3f 92       	push	r3
    195c:	4f 92       	push	r4
    195e:	5f 92       	push	r5
    1960:	6f 92       	push	r6
    1962:	7f 92       	push	r7
    1964:	8f 92       	push	r8
    1966:	9f 92       	push	r9
    1968:	af 92       	push	r10
    196a:	bf 92       	push	r11
    196c:	cf 92       	push	r12
    196e:	df 92       	push	r13
    1970:	ef 92       	push	r14
    1972:	ff 92       	push	r15
    1974:	0f 93       	push	r16
    1976:	1f 93       	push	r17
    1978:	cf 93       	push	r28
    197a:	df 93       	push	r29
    197c:	8b e3       	ldi	r24, 0x3B	; 59
    197e:	91 e0       	ldi	r25, 0x01	; 1
    1980:	90 93 ac 0d 	sts	0x0DAC, r25
    1984:	80 93 ab 0d 	sts	0x0DAB, r24
    1988:	90 93 a1 0d 	sts	0x0DA1, r25
    198c:	80 93 a0 0d 	sts	0x0DA0, r24
    1990:	7a e8       	ldi	r23, 0x8A	; 138
    1992:	87 2e       	mov	r8, r23
    1994:	7d e0       	ldi	r23, 0x0D	; 13
    1996:	97 2e       	mov	r9, r23
    1998:	90 92 a7 0d 	sts	0x0DA7, r9
    199c:	80 92 a6 0d 	sts	0x0DA6, r8
    19a0:	88 e5       	ldi	r24, 0x58	; 88
    19a2:	9d e0       	ldi	r25, 0x0D	; 13
    19a4:	90 93 9a 0d 	sts	0x0D9A, r25
    19a8:	80 93 99 0d 	sts	0x0D99, r24
    19ac:	82 e2       	ldi	r24, 0x22	; 34
    19ae:	9d e0       	ldi	r25, 0x0D	; 13
    19b0:	90 93 ae 0d 	sts	0x0DAE, r25
    19b4:	80 93 ad 0d 	sts	0x0DAD, r24
    19b8:	60 91 c4 0d 	lds	r22, 0x0DC4
    19bc:	70 91 c5 0d 	lds	r23, 0x0DC5
    19c0:	87 ee       	ldi	r24, 0xE7	; 231
    19c2:	9b e0       	ldi	r25, 0x0B	; 11
    19c4:	0e 94 7e 09 	call	0x12fc	; 0x12fc <printnum>
    19c8:	60 91 c4 0d 	lds	r22, 0x0DC4
    19cc:	70 91 c5 0d 	lds	r23, 0x0DC5
    19d0:	85 e5       	ldi	r24, 0x55	; 85
    19d2:	93 e0       	ldi	r25, 0x03	; 3
    19d4:	0e 94 44 08 	call	0x1088	; 0x1088 <printmsg>
    19d8:	60 91 c4 0d 	lds	r22, 0x0DC4
    19dc:	70 91 c5 0d 	lds	r23, 0x0DC5
    19e0:	80 e0       	ldi	r24, 0x00	; 0
    19e2:	98 e0       	ldi	r25, 0x08	; 8
    19e4:	0e 94 7e 09 	call	0x12fc	; 0x12fc <printnum>
    19e8:	60 91 c4 0d 	lds	r22, 0x0DC4
    19ec:	70 91 c5 0d 	lds	r23, 0x0DC5
    19f0:	80 e6       	ldi	r24, 0x60	; 96
    19f2:	93 e0       	ldi	r25, 0x03	; 3
    19f4:	0e 94 44 08 	call	0x1088	; 0x1088 <printmsg>
    19f8:	80 91 c4 0d 	lds	r24, 0x0DC4
    19fc:	90 91 c5 0d 	lds	r25, 0x0DC5
    1a00:	0e 94 79 06 	call	0xcf2	; 0xcf2 <newline>
    1a04:	64 e0       	ldi	r22, 0x04	; 4
    1a06:	a6 2e       	mov	r10, r22
    1a08:	50 e9       	ldi	r21, 0x90	; 144
    1a0a:	25 2e       	mov	r2, r21
    1a0c:	5d e0       	ldi	r21, 0x0D	; 13
    1a0e:	35 2e       	mov	r3, r21
    1a10:	60 91 c4 0d 	lds	r22, 0x0DC4
    1a14:	70 91 c5 0d 	lds	r23, 0x0DC5
    1a18:	83 ed       	ldi	r24, 0xD3	; 211
    1a1a:	90 e0       	ldi	r25, 0x00	; 0
    1a1c:	0e 94 d6 17 	call	0x2fac	; 0x2fac <fputc>
    1a20:	60 91 c4 0d 	lds	r22, 0x0DC4
    1a24:	70 91 c5 0d 	lds	r23, 0x0DC5
    1a28:	81 ed       	ldi	r24, 0xD1	; 209
    1a2a:	90 e0       	ldi	r25, 0x00	; 0
    1a2c:	0e 94 d6 17 	call	0x2fac	; 0x2fac <fputc>
    1a30:	10 92 9e 0d 	sts	0x0D9E, r1
    1a34:	10 92 9d 0d 	sts	0x0D9D, r1
    1a38:	90 92 a7 0d 	sts	0x0DA7, r9
    1a3c:	80 92 a6 0d 	sts	0x0DA6, r8
    1a40:	60 91 c4 0d 	lds	r22, 0x0DC4
    1a44:	70 91 c5 0d 	lds	r23, 0x0DC5
    1a48:	83 e8       	ldi	r24, 0x83	; 131
    1a4a:	93 e0       	ldi	r25, 0x03	; 3
    1a4c:	0e 94 44 08 	call	0x1088	; 0x1088 <printmsg>
    1a50:	4a ec       	ldi	r20, 0xCA	; 202
    1a52:	44 2e       	mov	r4, r20
    1a54:	20 91 38 01 	lds	r18, 0x0138
    1a58:	82 2f       	mov	r24, r18
    1a5a:	90 e0       	ldi	r25, 0x00	; 0
    1a5c:	83 70       	andi	r24, 0x03	; 3
    1a5e:	90 70       	andi	r25, 0x00	; 0
    1a60:	89 2b       	or	r24, r25
    1a62:	21 f0       	breq	.+8      	; 0x1a6c <parser_loop+0x114>
    1a64:	2c 7f       	andi	r18, 0xFC	; 252
    1a66:	20 93 38 01 	sts	0x0138, r18
    1a6a:	4b c2       	rjmp	.+1174   	; 0x1f02 <parser_loop+0x5aa>
    1a6c:	8e e3       	ldi	r24, 0x3E	; 62
    1a6e:	0e 94 89 06 	call	0xd12	; 0xd12 <get_line>
    1a72:	0e 94 8b 05 	call	0xb16	; 0xb16 <uppercase>
    1a76:	80 91 a0 0d 	lds	r24, 0x0DA0
    1a7a:	90 91 a1 0d 	lds	r25, 0x0DA1
    1a7e:	02 96       	adiw	r24, 0x02	; 2
    1a80:	90 93 8f 0d 	sts	0x0D8F, r25
    1a84:	80 93 8e 0d 	sts	0x0D8E, r24
    1a88:	05 c0       	rjmp	.+10     	; 0x1a94 <parser_loop+0x13c>
    1a8a:	31 96       	adiw	r30, 0x01	; 1
    1a8c:	f0 93 8f 0d 	sts	0x0D8F, r31
    1a90:	e0 93 8e 0d 	sts	0x0D8E, r30
    1a94:	e0 91 8e 0d 	lds	r30, 0x0D8E
    1a98:	f0 91 8f 0d 	lds	r31, 0x0D8F
    1a9c:	80 81       	ld	r24, Z
    1a9e:	8a 30       	cpi	r24, 0x0A	; 10
    1aa0:	a1 f7       	brne	.-24     	; 0x1a8a <parser_loop+0x132>
    1aa2:	a0 91 ad 0d 	lds	r26, 0x0DAD
    1aa6:	b0 91 ae 0d 	lds	r27, 0x0DAE
    1aaa:	11 97       	sbiw	r26, 0x01	; 1
    1aac:	e0 91 8e 0d 	lds	r30, 0x0D8E
    1ab0:	f0 91 8f 0d 	lds	r31, 0x0D8F
    1ab4:	80 81       	ld	r24, Z
    1ab6:	8c 93       	st	X, r24
    1ab8:	20 91 8e 0d 	lds	r18, 0x0D8E
    1abc:	30 91 8f 0d 	lds	r19, 0x0D8F
    1ac0:	80 91 a0 0d 	lds	r24, 0x0DA0
    1ac4:	90 91 a1 0d 	lds	r25, 0x0DA1
    1ac8:	02 96       	adiw	r24, 0x02	; 2
    1aca:	28 17       	cp	r18, r24
    1acc:	39 07       	cpc	r19, r25
    1ace:	41 f0       	breq	.+16     	; 0x1ae0 <parser_loop+0x188>
    1ad0:	11 97       	sbiw	r26, 0x01	; 1
    1ad2:	21 50       	subi	r18, 0x01	; 1
    1ad4:	30 40       	sbci	r19, 0x00	; 0
    1ad6:	30 93 8f 0d 	sts	0x0D8F, r19
    1ada:	20 93 8e 0d 	sts	0x0D8E, r18
    1ade:	e6 cf       	rjmp	.-52     	; 0x1aac <parser_loop+0x154>
    1ae0:	b0 93 8f 0d 	sts	0x0D8F, r27
    1ae4:	a0 93 8e 0d 	sts	0x0D8E, r26
    1ae8:	0e 94 17 06 	call	0xc2e	; 0xc2e <linenum_test>
    1aec:	90 93 8c 0d 	sts	0x0D8C, r25
    1af0:	80 93 8b 0d 	sts	0x0D8B, r24
    1af4:	0e 94 3e 05 	call	0xa7c	; 0xa7c <ignorespace>
    1af8:	80 91 8b 0d 	lds	r24, 0x0D8B
    1afc:	90 91 8c 0d 	lds	r25, 0x0D8C
    1b00:	00 97       	sbiw	r24, 0x00	; 0
    1b02:	09 f4       	brne	.+2      	; 0x1b06 <parser_loop+0x1ae>
    1b04:	91 c1       	rjmp	.+802    	; 0x1e28 <parser_loop+0x4d0>
    1b06:	8f 5f       	subi	r24, 0xFF	; 255
    1b08:	9f 4f       	sbci	r25, 0xFF	; 255
    1b0a:	09 f4       	brne	.+2      	; 0x1b0e <parser_loop+0x1b6>
    1b0c:	c8 c2       	rjmp	.+1424   	; 0x209e <parser_loop+0x746>
    1b0e:	20 91 8e 0d 	lds	r18, 0x0D8E
    1b12:	30 91 8f 0d 	lds	r19, 0x0D8F
    1b16:	90 e0       	ldi	r25, 0x00	; 0
    1b18:	01 c0       	rjmp	.+2      	; 0x1b1c <parser_loop+0x1c4>
    1b1a:	9f 5f       	subi	r25, 0xFF	; 255
    1b1c:	f9 01       	movw	r30, r18
    1b1e:	e9 0f       	add	r30, r25
    1b20:	f1 1d       	adc	r31, r1
    1b22:	80 81       	ld	r24, Z
    1b24:	8a 30       	cpi	r24, 0x0A	; 10
    1b26:	c9 f7       	brne	.-14     	; 0x1b1a <parser_loop+0x1c2>
    1b28:	19 2f       	mov	r17, r25
    1b2a:	1c 5f       	subi	r17, 0xFC	; 252
    1b2c:	f9 01       	movw	r30, r18
    1b2e:	33 97       	sbiw	r30, 0x03	; 3
    1b30:	f0 93 8f 0d 	sts	0x0D8F, r31
    1b34:	e0 93 8e 0d 	sts	0x0D8E, r30
    1b38:	80 91 8b 0d 	lds	r24, 0x0D8B
    1b3c:	90 91 8c 0d 	lds	r25, 0x0D8C
    1b40:	91 83       	std	Z+1, r25	; 0x01
    1b42:	80 83       	st	Z, r24
    1b44:	12 83       	std	Z+2, r17	; 0x02
    1b46:	0e 94 24 05 	call	0xa48	; 0xa48 <find_line>
    1b4a:	dc 01       	movw	r26, r24
    1b4c:	40 91 a0 0d 	lds	r20, 0x0DA0
    1b50:	50 91 a1 0d 	lds	r21, 0x0DA1
    1b54:	84 17       	cp	r24, r20
    1b56:	95 07       	cpc	r25, r21
    1b58:	11 f1       	breq	.+68     	; 0x1b9e <parser_loop+0x246>
    1b5a:	2d 91       	ld	r18, X+
    1b5c:	3c 91       	ld	r19, X
    1b5e:	11 97       	sbiw	r26, 0x01	; 1
    1b60:	80 91 8b 0d 	lds	r24, 0x0D8B
    1b64:	90 91 8c 0d 	lds	r25, 0x0D8C
    1b68:	28 17       	cp	r18, r24
    1b6a:	39 07       	cpc	r19, r25
    1b6c:	c1 f4       	brne	.+48     	; 0x1b9e <parser_loop+0x246>
    1b6e:	12 96       	adiw	r26, 0x02	; 2
    1b70:	8c 91       	ld	r24, X
    1b72:	12 97       	sbiw	r26, 0x02	; 2
    1b74:	fd 01       	movw	r30, r26
    1b76:	e8 0f       	add	r30, r24
    1b78:	f1 1d       	adc	r31, r1
    1b7a:	4e 1b       	sub	r20, r30
    1b7c:	5f 0b       	sbc	r21, r31
    1b7e:	ed 01       	movw	r28, r26
    1b80:	9a 01       	movw	r18, r20
    1b82:	04 c0       	rjmp	.+8      	; 0x1b8c <parser_loop+0x234>
    1b84:	81 91       	ld	r24, Z+
    1b86:	89 93       	st	Y+, r24
    1b88:	21 50       	subi	r18, 0x01	; 1
    1b8a:	30 40       	sbci	r19, 0x00	; 0
    1b8c:	21 15       	cp	r18, r1
    1b8e:	31 05       	cpc	r19, r1
    1b90:	c9 f7       	brne	.-14     	; 0x1b84 <parser_loop+0x22c>
    1b92:	4a 0f       	add	r20, r26
    1b94:	5b 1f       	adc	r21, r27
    1b96:	50 93 a1 0d 	sts	0x0DA1, r21
    1b9a:	40 93 a0 0d 	sts	0x0DA0, r20
    1b9e:	e0 91 8e 0d 	lds	r30, 0x0D8E
    1ba2:	f0 91 8f 0d 	lds	r31, 0x0D8F
    1ba6:	83 81       	ldd	r24, Z+3	; 0x03
    1ba8:	8a 30       	cpi	r24, 0x0A	; 10
    1baa:	e9 f5       	brne	.+122    	; 0x1c26 <parser_loop+0x2ce>
    1bac:	53 cf       	rjmp	.-346    	; 0x1a54 <parser_loop+0xfc>
    1bae:	e0 91 a0 0d 	lds	r30, 0x0DA0
    1bb2:	f0 91 a1 0d 	lds	r31, 0x0DA1
    1bb6:	80 91 8e 0d 	lds	r24, 0x0D8E
    1bba:	90 91 8f 0d 	lds	r25, 0x0D8F
    1bbe:	8e 1b       	sub	r24, r30
    1bc0:	9f 0b       	sbc	r25, r31
    1bc2:	41 2f       	mov	r20, r17
    1bc4:	50 e0       	ldi	r21, 0x00	; 0
    1bc6:	84 17       	cp	r24, r20
    1bc8:	95 07       	cpc	r25, r21
    1bca:	08 f4       	brcc	.+2      	; 0x1bce <parser_loop+0x276>
    1bcc:	ac 01       	movw	r20, r24
    1bce:	bf 01       	movw	r22, r30
    1bd0:	64 0f       	add	r22, r20
    1bd2:	75 1f       	adc	r23, r21
    1bd4:	9f 01       	movw	r18, r30
    1bd6:	2a 1b       	sub	r18, r26
    1bd8:	3b 0b       	sbc	r19, r27
    1bda:	eb 01       	movw	r28, r22
    1bdc:	04 c0       	rjmp	.+8      	; 0x1be6 <parser_loop+0x28e>
    1bde:	82 91       	ld	r24, -Z
    1be0:	8a 93       	st	-Y, r24
    1be2:	21 50       	subi	r18, 0x01	; 1
    1be4:	30 40       	sbci	r19, 0x00	; 0
    1be6:	21 15       	cp	r18, r1
    1be8:	31 05       	cpc	r19, r1
    1bea:	c9 f7       	brne	.-14     	; 0x1bde <parser_loop+0x286>
    1bec:	ed 01       	movw	r28, r26
    1bee:	11 c0       	rjmp	.+34     	; 0x1c12 <parser_loop+0x2ba>
    1bf0:	e0 91 8e 0d 	lds	r30, 0x0D8E
    1bf4:	f0 91 8f 0d 	lds	r31, 0x0D8F
    1bf8:	80 81       	ld	r24, Z
    1bfa:	89 93       	st	Y+, r24
    1bfc:	80 91 8e 0d 	lds	r24, 0x0D8E
    1c00:	90 91 8f 0d 	lds	r25, 0x0D8F
    1c04:	01 96       	adiw	r24, 0x01	; 1
    1c06:	90 93 8f 0d 	sts	0x0D8F, r25
    1c0a:	80 93 8e 0d 	sts	0x0D8E, r24
    1c0e:	2f 5f       	subi	r18, 0xFF	; 255
    1c10:	3f 4f       	sbci	r19, 0xFF	; 255
    1c12:	24 17       	cp	r18, r20
    1c14:	35 07       	cpc	r19, r21
    1c16:	60 f3       	brcs	.-40     	; 0x1bf0 <parser_loop+0x298>
    1c18:	14 1b       	sub	r17, r20
    1c1a:	a4 0f       	add	r26, r20
    1c1c:	b5 1f       	adc	r27, r21
    1c1e:	70 93 a1 0d 	sts	0x0DA1, r23
    1c22:	60 93 a0 0d 	sts	0x0DA0, r22
    1c26:	11 23       	and	r17, r17
    1c28:	11 f6       	brne	.-124    	; 0x1bae <parser_loop+0x256>
    1c2a:	14 cf       	rjmp	.-472    	; 0x1a54 <parser_loop+0xfc>
    1c2c:	83 e0       	ldi	r24, 0x03	; 3
    1c2e:	0e 94 56 0a 	call	0x14ac	; 0x14ac <text_color>
    1c32:	80 e0       	ldi	r24, 0x00	; 0
    1c34:	0e 94 42 0a 	call	0x1484	; 0x1484 <paper_color>
    1c38:	80 91 bf 0d 	lds	r24, 0x0DBF
    1c3c:	90 e0       	ldi	r25, 0x00	; 0
    1c3e:	fc 01       	movw	r30, r24
    1c40:	31 97       	sbiw	r30, 0x01	; 1
    1c42:	e4 31       	cpi	r30, 0x14	; 20
    1c44:	f1 05       	cpc	r31, r1
    1c46:	08 f0       	brcs	.+2      	; 0x1c4a <parser_loop+0x2f2>
    1c48:	d2 c0       	rjmp	.+420    	; 0x1dee <parser_loop+0x496>
    1c4a:	e2 5c       	subi	r30, 0xC2	; 194
    1c4c:	ff 4f       	sbci	r31, 0xFF	; 255
    1c4e:	ee 0f       	add	r30, r30
    1c50:	ff 1f       	adc	r31, r31
    1c52:	05 90       	lpm	r0, Z+
    1c54:	f4 91       	lpm	r31, Z+
    1c56:	e0 2d       	mov	r30, r0
    1c58:	09 94       	ijmp
    1c5a:	60 91 c4 0d 	lds	r22, 0x0DC4
    1c5e:	70 91 c5 0d 	lds	r23, 0x0DC5
    1c62:	83 e9       	ldi	r24, 0x93	; 147
    1c64:	93 e0       	ldi	r25, 0x03	; 3
    1c66:	c1 c0       	rjmp	.+386    	; 0x1dea <parser_loop+0x492>
    1c68:	60 91 c4 0d 	lds	r22, 0x0DC4
    1c6c:	70 91 c5 0d 	lds	r23, 0x0DC5
    1c70:	87 ea       	ldi	r24, 0xA7	; 167
    1c72:	93 e0       	ldi	r25, 0x03	; 3
    1c74:	0e 94 2c 08 	call	0x1058	; 0x1058 <printmsgNoNL>
    1c78:	80 91 9d 0d 	lds	r24, 0x0D9D
    1c7c:	90 91 9e 0d 	lds	r25, 0x0D9E
    1c80:	89 2b       	or	r24, r25
    1c82:	39 f1       	breq	.+78     	; 0x1cd2 <parser_loop+0x37a>
    1c84:	00 d0       	rcall	.+0      	; 0x1c86 <parser_loop+0x32e>
    1c86:	80 e0       	ldi	r24, 0x00	; 0
    1c88:	91 e0       	ldi	r25, 0x01	; 1
    1c8a:	ed b7       	in	r30, 0x3d	; 61
    1c8c:	fe b7       	in	r31, 0x3e	; 62
    1c8e:	92 83       	std	Z+2, r25	; 0x02
    1c90:	81 83       	std	Z+1, r24	; 0x01
    1c92:	0e 94 02 18 	call	0x3004	; 0x3004 <printf>
    1c96:	e0 91 8e 0d 	lds	r30, 0x0D8E
    1c9a:	f0 91 8f 0d 	lds	r31, 0x0D8F
    1c9e:	10 81       	ld	r17, Z
    1ca0:	0f 90       	pop	r0
    1ca2:	0f 90       	pop	r0
    1ca4:	1a 30       	cpi	r17, 0x0A	; 10
    1ca6:	11 f0       	breq	.+4      	; 0x1cac <parser_loop+0x354>
    1ca8:	8e e5       	ldi	r24, 0x5E	; 94
    1caa:	80 83       	st	Z, r24
    1cac:	80 91 9d 0d 	lds	r24, 0x0D9D
    1cb0:	90 91 9e 0d 	lds	r25, 0x0D9E
    1cb4:	90 93 a4 0d 	sts	0x0DA4, r25
    1cb8:	80 93 a3 0d 	sts	0x0DA3, r24
    1cbc:	80 91 c4 0d 	lds	r24, 0x0DC4
    1cc0:	90 91 c5 0d 	lds	r25, 0x0DC5
    1cc4:	0e 94 c3 09 	call	0x1386	; 0x1386 <printline>
    1cc8:	e0 91 8e 0d 	lds	r30, 0x0D8E
    1ccc:	f0 91 8f 0d 	lds	r31, 0x0D8F
    1cd0:	10 83       	st	Z, r17
    1cd2:	80 91 c4 0d 	lds	r24, 0x0DC4
    1cd6:	90 91 c5 0d 	lds	r25, 0x0DC5
    1cda:	0e 94 79 06 	call	0xcf2	; 0xcf2 <newline>
    1cde:	87 c0       	rjmp	.+270    	; 0x1dee <parser_loop+0x496>
    1ce0:	60 91 c4 0d 	lds	r22, 0x0DC4
    1ce4:	70 91 c5 0d 	lds	r23, 0x0DC5
    1ce8:	84 eb       	ldi	r24, 0xB4	; 180
    1cea:	93 e0       	ldi	r25, 0x03	; 3
    1cec:	7e c0       	rjmp	.+252    	; 0x1dea <parser_loop+0x492>
    1cee:	60 91 c4 0d 	lds	r22, 0x0DC4
    1cf2:	70 91 c5 0d 	lds	r23, 0x0DC5
    1cf6:	83 ec       	ldi	r24, 0xC3	; 195
    1cf8:	93 e0       	ldi	r25, 0x03	; 3
    1cfa:	77 c0       	rjmp	.+238    	; 0x1dea <parser_loop+0x492>
    1cfc:	60 91 c4 0d 	lds	r22, 0x0DC4
    1d00:	70 91 c5 0d 	lds	r23, 0x0DC5
    1d04:	86 e8       	ldi	r24, 0x86	; 134
    1d06:	93 e0       	ldi	r25, 0x03	; 3
    1d08:	06 c0       	rjmp	.+12     	; 0x1d16 <parser_loop+0x3be>
    1d0a:	60 91 c4 0d 	lds	r22, 0x0DC4
    1d0e:	70 91 c5 0d 	lds	r23, 0x0DC5
    1d12:	8c e8       	ldi	r24, 0x8C	; 140
    1d14:	93 e0       	ldi	r25, 0x03	; 3
    1d16:	0e 94 44 08 	call	0x1088	; 0x1088 <printmsg>
    1d1a:	60 91 c4 0d 	lds	r22, 0x0DC4
    1d1e:	70 91 c5 0d 	lds	r23, 0x0DC5
    1d22:	88 ed       	ldi	r24, 0xD8	; 216
    1d24:	93 e0       	ldi	r25, 0x03	; 3
    1d26:	61 c0       	rjmp	.+194    	; 0x1dea <parser_loop+0x492>
    1d28:	60 91 c4 0d 	lds	r22, 0x0DC4
    1d2c:	70 91 c5 0d 	lds	r23, 0x0DC5
    1d30:	8c ee       	ldi	r24, 0xEC	; 236
    1d32:	93 e0       	ldi	r25, 0x03	; 3
    1d34:	5a c0       	rjmp	.+180    	; 0x1dea <parser_loop+0x492>
    1d36:	60 91 c4 0d 	lds	r22, 0x0DC4
    1d3a:	70 91 c5 0d 	lds	r23, 0x0DC5
    1d3e:	8e ef       	ldi	r24, 0xFE	; 254
    1d40:	93 e0       	ldi	r25, 0x03	; 3
    1d42:	53 c0       	rjmp	.+166    	; 0x1dea <parser_loop+0x492>
    1d44:	60 91 c4 0d 	lds	r22, 0x0DC4
    1d48:	70 91 c5 0d 	lds	r23, 0x0DC5
    1d4c:	83 e1       	ldi	r24, 0x13	; 19
    1d4e:	94 e0       	ldi	r25, 0x04	; 4
    1d50:	4c c0       	rjmp	.+152    	; 0x1dea <parser_loop+0x492>
    1d52:	60 91 c4 0d 	lds	r22, 0x0DC4
    1d56:	70 91 c5 0d 	lds	r23, 0x0DC5
    1d5a:	87 e2       	ldi	r24, 0x27	; 39
    1d5c:	94 e0       	ldi	r25, 0x04	; 4
    1d5e:	45 c0       	rjmp	.+138    	; 0x1dea <parser_loop+0x492>
    1d60:	60 91 c4 0d 	lds	r22, 0x0DC4
    1d64:	70 91 c5 0d 	lds	r23, 0x0DC5
    1d68:	89 e3       	ldi	r24, 0x39	; 57
    1d6a:	94 e0       	ldi	r25, 0x04	; 4
    1d6c:	3e c0       	rjmp	.+124    	; 0x1dea <parser_loop+0x492>
    1d6e:	60 91 c4 0d 	lds	r22, 0x0DC4
    1d72:	70 91 c5 0d 	lds	r23, 0x0DC5
    1d76:	8a e4       	ldi	r24, 0x4A	; 74
    1d78:	94 e0       	ldi	r25, 0x04	; 4
    1d7a:	37 c0       	rjmp	.+110    	; 0x1dea <parser_loop+0x492>
    1d7c:	60 91 c4 0d 	lds	r22, 0x0DC4
    1d80:	70 91 c5 0d 	lds	r23, 0x0DC5
    1d84:	8d e5       	ldi	r24, 0x5D	; 93
    1d86:	94 e0       	ldi	r25, 0x04	; 4
    1d88:	30 c0       	rjmp	.+96     	; 0x1dea <parser_loop+0x492>
    1d8a:	60 91 c4 0d 	lds	r22, 0x0DC4
    1d8e:	70 91 c5 0d 	lds	r23, 0x0DC5
    1d92:	8b e6       	ldi	r24, 0x6B	; 107
    1d94:	94 e0       	ldi	r25, 0x04	; 4
    1d96:	29 c0       	rjmp	.+82     	; 0x1dea <parser_loop+0x492>
    1d98:	60 91 c4 0d 	lds	r22, 0x0DC4
    1d9c:	70 91 c5 0d 	lds	r23, 0x0DC5
    1da0:	8c e7       	ldi	r24, 0x7C	; 124
    1da2:	94 e0       	ldi	r25, 0x04	; 4
    1da4:	22 c0       	rjmp	.+68     	; 0x1dea <parser_loop+0x492>
    1da6:	60 91 c4 0d 	lds	r22, 0x0DC4
    1daa:	70 91 c5 0d 	lds	r23, 0x0DC5
    1dae:	8c e8       	ldi	r24, 0x8C	; 140
    1db0:	94 e0       	ldi	r25, 0x04	; 4
    1db2:	1b c0       	rjmp	.+54     	; 0x1dea <parser_loop+0x492>
    1db4:	60 91 c4 0d 	lds	r22, 0x0DC4
    1db8:	70 91 c5 0d 	lds	r23, 0x0DC5
    1dbc:	80 ea       	ldi	r24, 0xA0	; 160
    1dbe:	94 e0       	ldi	r25, 0x04	; 4
    1dc0:	14 c0       	rjmp	.+40     	; 0x1dea <parser_loop+0x492>
    1dc2:	60 91 c4 0d 	lds	r22, 0x0DC4
    1dc6:	70 91 c5 0d 	lds	r23, 0x0DC5
    1dca:	86 eb       	ldi	r24, 0xB6	; 182
    1dcc:	94 e0       	ldi	r25, 0x04	; 4
    1dce:	0d c0       	rjmp	.+26     	; 0x1dea <parser_loop+0x492>
    1dd0:	60 91 c4 0d 	lds	r22, 0x0DC4
    1dd4:	70 91 c5 0d 	lds	r23, 0x0DC5
    1dd8:	8d ec       	ldi	r24, 0xCD	; 205
    1dda:	94 e0       	ldi	r25, 0x04	; 4
    1ddc:	06 c0       	rjmp	.+12     	; 0x1dea <parser_loop+0x492>
    1dde:	60 91 c4 0d 	lds	r22, 0x0DC4
    1de2:	70 91 c5 0d 	lds	r23, 0x0DC5
    1de6:	8a ed       	ldi	r24, 0xDA	; 218
    1de8:	94 e0       	ldi	r25, 0x04	; 4
    1dea:	0e 94 44 08 	call	0x1088	; 0x1088 <printmsg>
    1dee:	8c e4       	ldi	r24, 0x4C	; 76
    1df0:	0e 94 56 0a 	call	0x14ac	; 0x14ac <text_color>
    1df4:	80 e0       	ldi	r24, 0x00	; 0
    1df6:	0e 94 42 0a 	call	0x1484	; 0x1484 <paper_color>
    1dfa:	0a ce       	rjmp	.-1004   	; 0x1a10 <parser_loop+0xb8>
    1dfc:	31 96       	adiw	r30, 0x01	; 1
    1dfe:	f0 93 8f 0d 	sts	0x0D8F, r31
    1e02:	e0 93 8e 0d 	sts	0x0D8E, r30
    1e06:	e0 91 8e 0d 	lds	r30, 0x0D8E
    1e0a:	f0 91 8f 0d 	lds	r31, 0x0D8F
    1e0e:	80 81       	ld	r24, Z
    1e10:	8a 33       	cpi	r24, 0x3A	; 58
    1e12:	a1 f3       	breq	.-24     	; 0x1dfc <parser_loop+0x4a4>
    1e14:	0e 94 3e 05 	call	0xa7c	; 0xa7c <ignorespace>
    1e18:	e0 91 8e 0d 	lds	r30, 0x0D8E
    1e1c:	f0 91 8f 0d 	lds	r31, 0x0D8F
    1e20:	80 81       	ld	r24, Z
    1e22:	8a 30       	cpi	r24, 0x0A	; 10
    1e24:	c9 f4       	brne	.+50     	; 0x1e58 <parser_loop+0x500>
    1e26:	a7 c0       	rjmp	.+334    	; 0x1f76 <parser_loop+0x61e>
    1e28:	10 92 a5 0d 	sts	0x0DA5, r1
    1e2c:	e0 91 a0 0d 	lds	r30, 0x0DA0
    1e30:	f0 91 a1 0d 	lds	r31, 0x0DA1
    1e34:	32 96       	adiw	r30, 0x02	; 2
    1e36:	f0 93 8f 0d 	sts	0x0D8F, r31
    1e3a:	e0 93 8e 0d 	sts	0x0D8E, r30
    1e3e:	32 97       	sbiw	r30, 0x02	; 2
    1e40:	82 81       	ldd	r24, Z+2	; 0x02
    1e42:	8a 30       	cpi	r24, 0x0A	; 10
    1e44:	09 f4       	brne	.+2      	; 0x1e48 <parser_loop+0x4f0>
    1e46:	06 ce       	rjmp	.-1012   	; 0x1a54 <parser_loop+0xfc>
    1e48:	3c ec       	ldi	r19, 0xCC	; 204
    1e4a:	b3 2e       	mov	r11, r19
    1e4c:	28 e0       	ldi	r18, 0x08	; 8
    1e4e:	72 2e       	mov	r7, r18
    1e50:	90 e1       	ldi	r25, 0x10	; 16
    1e52:	69 2e       	mov	r6, r25
    1e54:	8a e0       	ldi	r24, 0x0A	; 10
    1e56:	58 2e       	mov	r5, r24
    1e58:	80 91 a5 0d 	lds	r24, 0x0DA5
    1e5c:	88 23       	and	r24, r24
    1e5e:	21 f4       	brne	.+8      	; 0x1e68 <parser_loop+0x510>
    1e60:	80 91 c6 00 	lds	r24, 0x00C6
    1e64:	83 30       	cpi	r24, 0x03	; 3
    1e66:	59 f4       	brne	.+22     	; 0x1e7e <parser_loop+0x526>
    1e68:	10 92 a5 0d 	sts	0x0DA5, r1
    1e6c:	60 91 c4 0d 	lds	r22, 0x0DC4
    1e70:	70 91 c5 0d 	lds	r23, 0x0DC5
    1e74:	8c e7       	ldi	r24, 0x7C	; 124
    1e76:	93 e0       	ldi	r25, 0x03	; 3
    1e78:	0e 94 44 08 	call	0x1088	; 0x1088 <printmsg>
    1e7c:	c9 cd       	rjmp	.-1134   	; 0x1a10 <parser_loop+0xb8>
    1e7e:	82 ef       	ldi	r24, 0xF2	; 242
    1e80:	94 e0       	ldi	r25, 0x04	; 4
    1e82:	0e 94 4e 05 	call	0xa9c	; 0xa9c <scantable>
    1e86:	10 92 bf 0d 	sts	0x0DBF, r1
    1e8a:	80 91 9f 0d 	lds	r24, 0x0D9F
    1e8e:	e8 2f       	mov	r30, r24
    1e90:	f0 e0       	ldi	r31, 0x00	; 0
    1e92:	ef 32       	cpi	r30, 0x2F	; 47
    1e94:	f1 05       	cpc	r31, r1
    1e96:	08 f0       	brcs	.+2      	; 0x1e9a <parser_loop+0x542>
    1e98:	6e c0       	rjmp	.+220    	; 0x1f76 <parser_loop+0x61e>
    1e9a:	ee 5a       	subi	r30, 0xAE	; 174
    1e9c:	ff 4f       	sbci	r31, 0xFF	; 255
    1e9e:	ee 0f       	add	r30, r30
    1ea0:	ff 1f       	adc	r31, r31
    1ea2:	05 90       	lpm	r0, Z+
    1ea4:	f4 91       	lpm	r31, Z+
    1ea6:	e0 2d       	mov	r30, r0
    1ea8:	09 94       	ijmp
    1eaa:	0e 94 58 0c 	call	0x18b0	; 0x18b0 <parse_step1>
    1eae:	28 e8       	ldi	r18, 0x88	; 136
    1eb0:	33 e1       	ldi	r19, 0x13	; 19
    1eb2:	04 c0       	rjmp	.+8      	; 0x1ebc <parser_loop+0x564>
    1eb4:	f9 01       	movw	r30, r18
    1eb6:	31 97       	sbiw	r30, 0x01	; 1
    1eb8:	f1 f7       	brne	.-4      	; 0x1eb6 <parser_loop+0x55e>
    1eba:	01 97       	sbiw	r24, 0x01	; 1
    1ebc:	00 97       	sbiw	r24, 0x00	; 0
    1ebe:	d1 f7       	brne	.-12     	; 0x1eb4 <parser_loop+0x55c>
    1ec0:	5a c0       	rjmp	.+180    	; 0x1f76 <parser_loop+0x61e>
    1ec2:	e0 91 8e 0d 	lds	r30, 0x0D8E
    1ec6:	f0 91 8f 0d 	lds	r31, 0x0D8F
    1eca:	80 81       	ld	r24, Z
    1ecc:	8a 30       	cpi	r24, 0x0A	; 10
    1ece:	09 f4       	brne	.+2      	; 0x1ed2 <parser_loop+0x57a>
    1ed0:	ad c4       	rjmp	.+2394   	; 0x282c <parser_loop+0xed4>
    1ed2:	82 e0       	ldi	r24, 0x02	; 2
    1ed4:	80 93 bf 0d 	sts	0x0DBF, r24
    1ed8:	a9 ce       	rjmp	.-686    	; 0x1c2c <parser_loop+0x2d4>
    1eda:	0e 94 de 04 	call	0x9bc	; 0x9bc <do_beep>
    1ede:	4b c0       	rjmp	.+150    	; 0x1f76 <parser_loop+0x61e>
    1ee0:	ea 9a       	sbi	0x1d, 2	; 29
    1ee2:	60 91 c4 0d 	lds	r22, 0x0DC4
    1ee6:	70 91 c5 0d 	lds	r23, 0x0DC5
    1eea:	82 ed       	ldi	r24, 0xD2	; 210
    1eec:	90 e0       	ldi	r25, 0x00	; 0
    1eee:	0e 94 d6 17 	call	0x2fac	; 0x2fac <fputc>
    1ef2:	60 91 c4 0d 	lds	r22, 0x0DC4
    1ef6:	70 91 c5 0d 	lds	r23, 0x0DC5
    1efa:	80 ed       	ldi	r24, 0xD0	; 208
    1efc:	90 e0       	ldi	r25, 0x00	; 0
    1efe:	0e 94 d6 17 	call	0x2fac	; 0x2fac <fputc>
    1f02:	80 91 ab 0d 	lds	r24, 0x0DAB
    1f06:	90 91 ac 0d 	lds	r25, 0x0DAC
    1f0a:	ca c1       	rjmp	.+916    	; 0x22a0 <parser_loop+0x948>
    1f0c:	0e 94 58 0c 	call	0x18b0	; 0x18b0 <parse_step1>
    1f10:	9c 01       	movw	r18, r24
    1f12:	80 91 bf 0d 	lds	r24, 0x0DBF
    1f16:	88 23       	and	r24, r24
    1f18:	09 f0       	breq	.+2      	; 0x1f1c <parser_loop+0x5c4>
    1f1a:	32 c6       	rjmp	.+3172   	; 0x2b80 <parser_loop+0x1228>
    1f1c:	e0 91 8e 0d 	lds	r30, 0x0D8E
    1f20:	f0 91 8f 0d 	lds	r31, 0x0D8F
    1f24:	80 81       	ld	r24, Z
    1f26:	8a 30       	cpi	r24, 0x0A	; 10
    1f28:	09 f4       	brne	.+2      	; 0x1f2c <parser_loop+0x5d4>
    1f2a:	2a c6       	rjmp	.+3156   	; 0x2b80 <parser_loop+0x1228>
    1f2c:	23 2b       	or	r18, r19
    1f2e:	09 f0       	breq	.+2      	; 0x1f32 <parser_loop+0x5da>
    1f30:	93 cf       	rjmp	.-218    	; 0x1e58 <parser_loop+0x500>
    1f32:	21 c0       	rjmp	.+66     	; 0x1f76 <parser_loop+0x61e>
    1f34:	0e 94 58 0c 	call	0x18b0	; 0x18b0 <parse_step1>
    1f38:	90 93 8c 0d 	sts	0x0D8C, r25
    1f3c:	80 93 8b 0d 	sts	0x0D8B, r24
    1f40:	80 91 bf 0d 	lds	r24, 0x0DBF
    1f44:	88 23       	and	r24, r24
    1f46:	09 f0       	breq	.+2      	; 0x1f4a <parser_loop+0x5f2>
    1f48:	1b c6       	rjmp	.+3126   	; 0x2b80 <parser_loop+0x1228>
    1f4a:	e0 91 8e 0d 	lds	r30, 0x0D8E
    1f4e:	f0 91 8f 0d 	lds	r31, 0x0D8F
    1f52:	80 81       	ld	r24, Z
    1f54:	8a 30       	cpi	r24, 0x0A	; 10
    1f56:	09 f4       	brne	.+2      	; 0x1f5a <parser_loop+0x602>
    1f58:	a1 c1       	rjmp	.+834    	; 0x229c <parser_loop+0x944>
    1f5a:	12 c6       	rjmp	.+3108   	; 0x2b80 <parser_loop+0x1228>
    1f5c:	e0 91 8e 0d 	lds	r30, 0x0D8E
    1f60:	f0 91 8f 0d 	lds	r31, 0x0D8F
    1f64:	80 81       	ld	r24, Z
    1f66:	8a 30       	cpi	r24, 0x0A	; 10
    1f68:	09 f0       	breq	.+2      	; 0x1f6c <parser_loop+0x614>
    1f6a:	b3 cf       	rjmp	.-154    	; 0x1ed2 <parser_loop+0x57a>
    1f6c:	80 91 a0 0d 	lds	r24, 0x0DA0
    1f70:	90 91 a1 0d 	lds	r25, 0x0DA1
    1f74:	95 c1       	rjmp	.+810    	; 0x22a0 <parser_loop+0x948>
    1f76:	e0 91 9d 0d 	lds	r30, 0x0D9D
    1f7a:	f0 91 9e 0d 	lds	r31, 0x0D9E
    1f7e:	30 97       	sbiw	r30, 0x00	; 0
    1f80:	09 f4       	brne	.+2      	; 0x1f84 <parser_loop+0x62c>
    1f82:	46 cd       	rjmp	.-1396   	; 0x1a10 <parser_loop+0xb8>
    1f84:	82 81       	ldd	r24, Z+2	; 0x02
    1f86:	e8 0f       	add	r30, r24
    1f88:	f1 1d       	adc	r31, r1
    1f8a:	f0 93 9e 0d 	sts	0x0D9E, r31
    1f8e:	e0 93 9d 0d 	sts	0x0D9D, r30
    1f92:	20 91 9d 0d 	lds	r18, 0x0D9D
    1f96:	30 91 9e 0d 	lds	r19, 0x0D9E
    1f9a:	80 91 a0 0d 	lds	r24, 0x0DA0
    1f9e:	90 91 a1 0d 	lds	r25, 0x0DA1
    1fa2:	28 17       	cp	r18, r24
    1fa4:	39 07       	cpc	r19, r25
    1fa6:	09 f4       	brne	.+2      	; 0x1faa <parser_loop+0x652>
    1fa8:	33 cd       	rjmp	.-1434   	; 0x1a10 <parser_loop+0xb8>
    1faa:	2d 5f       	subi	r18, 0xFD	; 253
    1fac:	3f 4f       	sbci	r19, 0xFF	; 255
    1fae:	30 93 8f 0d 	sts	0x0D8F, r19
    1fb2:	20 93 8e 0d 	sts	0x0D8E, r18
    1fb6:	48 cf       	rjmp	.-368    	; 0x1e48 <parser_loop+0x4f0>
    1fb8:	10 92 9c 0d 	sts	0x0D9C, r1
    1fbc:	10 92 9b 0d 	sts	0x0D9B, r1
    1fc0:	c0 e0       	ldi	r28, 0x00	; 0
    1fc2:	d0 e0       	ldi	r29, 0x00	; 0
    1fc4:	84 e2       	ldi	r24, 0x24	; 36
    1fc6:	91 e0       	ldi	r25, 0x01	; 1
    1fc8:	0e 94 80 17 	call	0x2f00	; 0x2f00 <fgetc>
    1fcc:	ac 01       	movw	r20, r24
    1fce:	00 97       	sbiw	r24, 0x00	; 0
    1fd0:	91 f2       	breq	.-92     	; 0x1f76 <parser_loop+0x61e>
    1fd2:	80 97       	sbiw	r24, 0x20	; 32
    1fd4:	8f 35       	cpi	r24, 0x5F	; 95
    1fd6:	91 05       	cpc	r25, r1
    1fd8:	68 f0       	brcs	.+26     	; 0x1ff4 <parser_loop+0x69c>
    1fda:	4a 30       	cpi	r20, 0x0A	; 10
    1fdc:	51 05       	cpc	r21, r1
    1fde:	51 f0       	breq	.+20     	; 0x1ff4 <parser_loop+0x69c>
    1fe0:	4d 30       	cpi	r20, 0x0D	; 13
    1fe2:	51 05       	cpc	r21, r1
    1fe4:	39 f0       	breq	.+14     	; 0x1ff4 <parser_loop+0x69c>
    1fe6:	60 91 c4 0d 	lds	r22, 0x0DC4
    1fea:	70 91 c5 0d 	lds	r23, 0x0DC5
    1fee:	8f e3       	ldi	r24, 0x3F	; 63
    1ff0:	90 e0       	ldi	r25, 0x00	; 0
    1ff2:	05 c0       	rjmp	.+10     	; 0x1ffe <parser_loop+0x6a6>
    1ff4:	60 91 c4 0d 	lds	r22, 0x0DC4
    1ff8:	70 91 c5 0d 	lds	r23, 0x0DC5
    1ffc:	ca 01       	movw	r24, r20
    1ffe:	0e 94 d6 17 	call	0x2fac	; 0x2fac <fputc>
    2002:	21 96       	adiw	r28, 0x01	; 1
    2004:	98 e0       	ldi	r25, 0x08	; 8
    2006:	c0 30       	cpi	r28, 0x00	; 0
    2008:	d9 07       	cpc	r29, r25
    200a:	e1 f6       	brne	.-72     	; 0x1fc4 <parser_loop+0x66c>
    200c:	1f c0       	rjmp	.+62     	; 0x204c <parser_loop+0x6f4>
    200e:	10 92 9c 0d 	sts	0x0D9C, r1
    2012:	10 92 9b 0d 	sts	0x0D9B, r1
    2016:	c0 e0       	ldi	r28, 0x00	; 0
    2018:	d0 e0       	ldi	r29, 0x00	; 0
    201a:	80 e0       	ldi	r24, 0x00	; 0
    201c:	90 e0       	ldi	r25, 0x00	; 0
    201e:	64 e2       	ldi	r22, 0x24	; 36
    2020:	71 e0       	ldi	r23, 0x01	; 1
    2022:	0e 94 d6 17 	call	0x2fac	; 0x2fac <fputc>
    2026:	ce 01       	movw	r24, r28
    2028:	8f 77       	andi	r24, 0x7F	; 127
    202a:	90 70       	andi	r25, 0x00	; 0
    202c:	80 34       	cpi	r24, 0x40	; 64
    202e:	91 05       	cpc	r25, r1
    2030:	41 f4       	brne	.+16     	; 0x2042 <parser_loop+0x6ea>
    2032:	60 91 c4 0d 	lds	r22, 0x0DC4
    2036:	70 91 c5 0d 	lds	r23, 0x0DC5
    203a:	8e e2       	ldi	r24, 0x2E	; 46
    203c:	90 e0       	ldi	r25, 0x00	; 0
    203e:	0e 94 d6 17 	call	0x2fac	; 0x2fac <fputc>
    2042:	21 96       	adiw	r28, 0x01	; 1
    2044:	e7 e0       	ldi	r30, 0x07	; 7
    2046:	cf 3f       	cpi	r28, 0xFF	; 255
    2048:	de 07       	cpc	r29, r30
    204a:	39 f7       	brne	.-50     	; 0x201a <parser_loop+0x6c2>
    204c:	80 91 c4 0d 	lds	r24, 0x0DC4
    2050:	90 91 c5 0d 	lds	r25, 0x0DC5
    2054:	0e 94 79 06 	call	0xcf2	; 0xcf2 <newline>
    2058:	8e cf       	rjmp	.-228    	; 0x1f76 <parser_loop+0x61e>
    205a:	80 91 38 01 	lds	r24, 0x0138
    205e:	82 60       	ori	r24, 0x02	; 2
    2060:	80 93 38 01 	sts	0x0138, r24
    2064:	10 92 9c 0d 	sts	0x0D9C, r1
    2068:	10 92 9b 0d 	sts	0x0D9B, r1
    206c:	84 e2       	ldi	r24, 0x24	; 36
    206e:	91 e0       	ldi	r25, 0x01	; 1
    2070:	0e 94 80 17 	call	0x2f00	; 0x2f00 <fgetc>
    2074:	c0 97       	sbiw	r24, 0x30	; 48
    2076:	0a 97       	sbiw	r24, 0x0a	; 10
    2078:	90 f4       	brcc	.+36     	; 0x209e <parser_loop+0x746>
    207a:	10 92 9c 0d 	sts	0x0D9C, r1
    207e:	10 92 9b 0d 	sts	0x0D9B, r1
    2082:	80 91 ab 0d 	lds	r24, 0x0DAB
    2086:	90 91 ac 0d 	lds	r25, 0x0DAC
    208a:	90 93 a1 0d 	sts	0x0DA1, r25
    208e:	80 93 a0 0d 	sts	0x0DA0, r24
    2092:	80 91 38 01 	lds	r24, 0x0138
    2096:	88 60       	ori	r24, 0x08	; 8
    2098:	80 93 38 01 	sts	0x0138, r24
    209c:	b9 cc       	rjmp	.-1678   	; 0x1a10 <parser_loop+0xb8>
    209e:	89 e0       	ldi	r24, 0x09	; 9
    20a0:	19 cf       	rjmp	.-462    	; 0x1ed4 <parser_loop+0x57c>
    20a2:	10 92 9c 0d 	sts	0x0D9C, r1
    20a6:	10 92 9b 0d 	sts	0x0D9B, r1
    20aa:	0e 94 24 05 	call	0xa48	; 0xa48 <find_line>
    20ae:	90 93 a4 0d 	sts	0x0DA4, r25
    20b2:	80 93 a3 0d 	sts	0x0DA3, r24
    20b6:	04 c0       	rjmp	.+8      	; 0x20c0 <parser_loop+0x768>
    20b8:	84 e2       	ldi	r24, 0x24	; 36
    20ba:	91 e0       	ldi	r25, 0x01	; 1
    20bc:	0e 94 c3 09 	call	0x1386	; 0x1386 <printline>
    20c0:	20 91 a3 0d 	lds	r18, 0x0DA3
    20c4:	30 91 a4 0d 	lds	r19, 0x0DA4
    20c8:	80 91 a0 0d 	lds	r24, 0x0DA0
    20cc:	90 91 a1 0d 	lds	r25, 0x0DA1
    20d0:	28 17       	cp	r18, r24
    20d2:	39 07       	cpc	r19, r25
    20d4:	89 f7       	brne	.-30     	; 0x20b8 <parser_loop+0x760>
    20d6:	80 e0       	ldi	r24, 0x00	; 0
    20d8:	90 e0       	ldi	r25, 0x00	; 0
    20da:	64 e2       	ldi	r22, 0x24	; 36
    20dc:	71 e0       	ldi	r23, 0x01	; 1
    20de:	0e 94 d6 17 	call	0x2fac	; 0x2fac <fputc>
    20e2:	49 cf       	rjmp	.-366    	; 0x1f76 <parser_loop+0x61e>
    20e4:	0e 94 3e 05 	call	0xa7c	; 0xa7c <ignorespace>
    20e8:	e0 91 8e 0d 	lds	r30, 0x0D8E
    20ec:	f0 91 8f 0d 	lds	r31, 0x0D8F
    20f0:	10 81       	ld	r17, Z
    20f2:	81 2f       	mov	r24, r17
    20f4:	81 54       	subi	r24, 0x41	; 65
    20f6:	8a 31       	cpi	r24, 0x1A	; 26
    20f8:	08 f0       	brcs	.+2      	; 0x20fc <parser_loop+0x7a4>
    20fa:	87 c1       	rjmp	.+782    	; 0x240a <parser_loop+0xab2>
    20fc:	31 96       	adiw	r30, 0x01	; 1
    20fe:	f0 93 8f 0d 	sts	0x0D8F, r31
    2102:	e0 93 8e 0d 	sts	0x0D8E, r30
    2106:	0e 94 3e 05 	call	0xa7c	; 0xa7c <ignorespace>
    210a:	e0 91 8e 0d 	lds	r30, 0x0D8E
    210e:	f0 91 8f 0d 	lds	r31, 0x0D8F
    2112:	80 81       	ld	r24, Z
    2114:	8d 33       	cpi	r24, 0x3D	; 61
    2116:	11 f0       	breq	.+4      	; 0x211c <parser_loop+0x7c4>
    2118:	8a e0       	ldi	r24, 0x0A	; 10
    211a:	dc ce       	rjmp	.-584    	; 0x1ed4 <parser_loop+0x57c>
    211c:	31 96       	adiw	r30, 0x01	; 1
    211e:	f0 93 8f 0d 	sts	0x0D8F, r31
    2122:	e0 93 8e 0d 	sts	0x0D8E, r30
    2126:	0e 94 3e 05 	call	0xa7c	; 0xa7c <ignorespace>
    212a:	10 92 bf 0d 	sts	0x0DBF, r1
    212e:	0e 94 58 0c 	call	0x18b0	; 0x18b0 <parse_step1>
    2132:	6c 01       	movw	r12, r24
    2134:	80 91 bf 0d 	lds	r24, 0x0DBF
    2138:	88 23       	and	r24, r24
    213a:	09 f0       	breq	.+2      	; 0x213e <parser_loop+0x7e6>
    213c:	77 cd       	rjmp	.-1298   	; 0x1c2c <parser_loop+0x2d4>
    213e:	89 ee       	ldi	r24, 0xE9	; 233
    2140:	95 e0       	ldi	r25, 0x05	; 5
    2142:	0e 94 4e 05 	call	0xa9c	; 0xa9c <scantable>
    2146:	80 91 9f 0d 	lds	r24, 0x0D9F
    214a:	88 23       	and	r24, r24
    214c:	09 f0       	breq	.+2      	; 0x2150 <parser_loop+0x7f8>
    214e:	c1 ce       	rjmp	.-638    	; 0x1ed2 <parser_loop+0x57a>
    2150:	0e 94 58 0c 	call	0x18b0	; 0x18b0 <parse_step1>
    2154:	7c 01       	movw	r14, r24
    2156:	80 91 bf 0d 	lds	r24, 0x0DBF
    215a:	88 23       	and	r24, r24
    215c:	09 f0       	breq	.+2      	; 0x2160 <parser_loop+0x808>
    215e:	66 cd       	rjmp	.-1332   	; 0x1c2c <parser_loop+0x2d4>
    2160:	8c ee       	ldi	r24, 0xEC	; 236
    2162:	95 e0       	ldi	r25, 0x05	; 5
    2164:	0e 94 4e 05 	call	0xa9c	; 0xa9c <scantable>
    2168:	80 91 9f 0d 	lds	r24, 0x0D9F
    216c:	88 23       	and	r24, r24
    216e:	19 f0       	breq	.+6      	; 0x2176 <parser_loop+0x81e>
    2170:	c1 e0       	ldi	r28, 0x01	; 1
    2172:	d0 e0       	ldi	r29, 0x00	; 0
    2174:	09 c0       	rjmp	.+18     	; 0x2188 <parser_loop+0x830>
    2176:	0e 94 58 0c 	call	0x18b0	; 0x18b0 <parse_step1>
    217a:	9c 01       	movw	r18, r24
    217c:	80 91 bf 0d 	lds	r24, 0x0DBF
    2180:	88 23       	and	r24, r24
    2182:	09 f0       	breq	.+2      	; 0x2186 <parser_loop+0x82e>
    2184:	53 cd       	rjmp	.-1370   	; 0x1c2c <parser_loop+0x2d4>
    2186:	e9 01       	movw	r28, r18
    2188:	0e 94 3e 05 	call	0xa7c	; 0xa7c <ignorespace>
    218c:	e0 91 8e 0d 	lds	r30, 0x0D8E
    2190:	f0 91 8f 0d 	lds	r31, 0x0D8F
    2194:	e0 81       	ld	r30, Z
    2196:	ea 30       	cpi	r30, 0x0A	; 10
    2198:	19 f0       	breq	.+6      	; 0x21a0 <parser_loop+0x848>
    219a:	ea 33       	cpi	r30, 0x3A	; 58
    219c:	09 f0       	breq	.+2      	; 0x21a0 <parser_loop+0x848>
    219e:	99 ce       	rjmp	.-718    	; 0x1ed2 <parser_loop+0x57a>
    21a0:	80 91 bf 0d 	lds	r24, 0x0DBF
    21a4:	88 23       	and	r24, r24
    21a6:	09 f0       	breq	.+2      	; 0x21aa <parser_loop+0x852>
    21a8:	eb c4       	rjmp	.+2518   	; 0x2b80 <parser_loop+0x1228>
    21aa:	ea 30       	cpi	r30, 0x0A	; 10
    21ac:	09 f0       	breq	.+2      	; 0x21b0 <parser_loop+0x858>
    21ae:	e8 c4       	rjmp	.+2512   	; 0x2b80 <parser_loop+0x1228>
    21b0:	a0 91 a6 0d 	lds	r26, 0x0DA6
    21b4:	b0 91 a7 0d 	lds	r27, 0x0DA7
    21b8:	9d 01       	movw	r18, r26
    21ba:	26 5f       	subi	r18, 0xF6	; 246
    21bc:	3f 4f       	sbci	r19, 0xFF	; 255
    21be:	80 91 99 0d 	lds	r24, 0x0D99
    21c2:	90 91 9a 0d 	lds	r25, 0x0D9A
    21c6:	28 17       	cp	r18, r24
    21c8:	39 07       	cpc	r19, r25
    21ca:	08 f4       	brcc	.+2      	; 0x21ce <parser_loop+0x876>
    21cc:	54 c0       	rjmp	.+168    	; 0x2276 <parser_loop+0x91e>
    21ce:	1a 97       	sbiw	r26, 0x0a	; 10
    21d0:	b0 93 a7 0d 	sts	0x0DA7, r27
    21d4:	a0 93 a6 0d 	sts	0x0DA6, r26
    21d8:	81 2f       	mov	r24, r17
    21da:	90 e0       	ldi	r25, 0x00	; 0
    21dc:	81 54       	subi	r24, 0x41	; 65
    21de:	90 40       	sbci	r25, 0x00	; 0
    21e0:	88 0f       	add	r24, r24
    21e2:	99 1f       	adc	r25, r25
    21e4:	e0 91 ad 0d 	lds	r30, 0x0DAD
    21e8:	f0 91 ae 0d 	lds	r31, 0x0DAE
    21ec:	e8 0f       	add	r30, r24
    21ee:	f9 1f       	adc	r31, r25
    21f0:	d1 82       	std	Z+1, r13	; 0x01
    21f2:	c0 82       	st	Z, r12
    21f4:	86 e4       	ldi	r24, 0x46	; 70
    21f6:	8c 93       	st	X, r24
    21f8:	11 96       	adiw	r26, 0x01	; 1
    21fa:	1c 93       	st	X, r17
    21fc:	11 97       	sbiw	r26, 0x01	; 1
    21fe:	13 96       	adiw	r26, 0x03	; 3
    2200:	fc 92       	st	X, r15
    2202:	ee 92       	st	-X, r14
    2204:	12 97       	sbiw	r26, 0x02	; 2
    2206:	15 96       	adiw	r26, 0x05	; 5
    2208:	dc 93       	st	X, r29
    220a:	ce 93       	st	-X, r28
    220c:	14 97       	sbiw	r26, 0x04	; 4
    220e:	80 91 8e 0d 	lds	r24, 0x0D8E
    2212:	90 91 8f 0d 	lds	r25, 0x0D8F
    2216:	19 96       	adiw	r26, 0x09	; 9
    2218:	9c 93       	st	X, r25
    221a:	8e 93       	st	-X, r24
    221c:	18 97       	sbiw	r26, 0x08	; 8
    221e:	80 91 9d 0d 	lds	r24, 0x0D9D
    2222:	90 91 9e 0d 	lds	r25, 0x0D9E
    2226:	17 96       	adiw	r26, 0x07	; 7
    2228:	9c 93       	st	X, r25
    222a:	8e 93       	st	-X, r24
    222c:	16 97       	sbiw	r26, 0x06	; 6
    222e:	eb cd       	rjmp	.-1066   	; 0x1e06 <parser_loop+0x4ae>
    2230:	10 92 bf 0d 	sts	0x0DBF, r1
    2234:	0e 94 58 0c 	call	0x18b0	; 0x18b0 <parse_step1>
    2238:	90 93 8c 0d 	sts	0x0D8C, r25
    223c:	80 93 8b 0d 	sts	0x0D8B, r24
    2240:	80 91 bf 0d 	lds	r24, 0x0DBF
    2244:	88 23       	and	r24, r24
    2246:	09 f0       	breq	.+2      	; 0x224a <parser_loop+0x8f2>
    2248:	9b c4       	rjmp	.+2358   	; 0x2b80 <parser_loop+0x1228>
    224a:	a0 91 8e 0d 	lds	r26, 0x0D8E
    224e:	b0 91 8f 0d 	lds	r27, 0x0D8F
    2252:	8c 91       	ld	r24, X
    2254:	8a 30       	cpi	r24, 0x0A	; 10
    2256:	09 f0       	breq	.+2      	; 0x225a <parser_loop+0x902>
    2258:	93 c4       	rjmp	.+2342   	; 0x2b80 <parser_loop+0x1228>
    225a:	e0 91 a6 0d 	lds	r30, 0x0DA6
    225e:	f0 91 a7 0d 	lds	r31, 0x0DA7
    2262:	9f 01       	movw	r18, r30
    2264:	2a 5f       	subi	r18, 0xFA	; 250
    2266:	3f 4f       	sbci	r19, 0xFF	; 255
    2268:	80 91 99 0d 	lds	r24, 0x0D99
    226c:	90 91 9a 0d 	lds	r25, 0x0D9A
    2270:	28 17       	cp	r18, r24
    2272:	39 07       	cpc	r19, r25
    2274:	10 f4       	brcc	.+4      	; 0x227a <parser_loop+0x922>
    2276:	83 e0       	ldi	r24, 0x03	; 3
    2278:	2d ce       	rjmp	.-934    	; 0x1ed4 <parser_loop+0x57c>
    227a:	36 97       	sbiw	r30, 0x06	; 6
    227c:	f0 93 a7 0d 	sts	0x0DA7, r31
    2280:	e0 93 a6 0d 	sts	0x0DA6, r30
    2284:	87 e4       	ldi	r24, 0x47	; 71
    2286:	90 e0       	ldi	r25, 0x00	; 0
    2288:	91 83       	std	Z+1, r25	; 0x01
    228a:	80 83       	st	Z, r24
    228c:	b5 83       	std	Z+5, r27	; 0x05
    228e:	a4 83       	std	Z+4, r26	; 0x04
    2290:	80 91 9d 0d 	lds	r24, 0x0D9D
    2294:	90 91 9e 0d 	lds	r25, 0x0D9E
    2298:	93 83       	std	Z+3, r25	; 0x03
    229a:	82 83       	std	Z+2, r24	; 0x02
    229c:	0e 94 24 05 	call	0xa48	; 0xa48 <find_line>
    22a0:	90 93 9e 0d 	sts	0x0D9E, r25
    22a4:	80 93 9d 0d 	sts	0x0D9D, r24
    22a8:	74 ce       	rjmp	.-792    	; 0x1f92 <parser_loop+0x63a>
    22aa:	0e 94 3e 05 	call	0xa7c	; 0xa7c <ignorespace>
    22ae:	e0 91 8e 0d 	lds	r30, 0x0D8E
    22b2:	f0 91 8f 0d 	lds	r31, 0x0D8F
    22b6:	80 81       	ld	r24, Z
    22b8:	81 54       	subi	r24, 0x41	; 65
    22ba:	8a 31       	cpi	r24, 0x1A	; 26
    22bc:	08 f0       	brcs	.+2      	; 0x22c0 <parser_loop+0x968>
    22be:	a5 c0       	rjmp	.+330    	; 0x240a <parser_loop+0xab2>
    22c0:	31 96       	adiw	r30, 0x01	; 1
    22c2:	f0 93 8f 0d 	sts	0x0D8F, r31
    22c6:	e0 93 8e 0d 	sts	0x0D8E, r30
    22ca:	0e 94 3e 05 	call	0xa7c	; 0xa7c <ignorespace>
    22ce:	e0 91 8e 0d 	lds	r30, 0x0D8E
    22d2:	f0 91 8f 0d 	lds	r31, 0x0D8F
    22d6:	e0 81       	ld	r30, Z
    22d8:	ea 33       	cpi	r30, 0x3A	; 58
    22da:	19 f0       	breq	.+6      	; 0x22e2 <parser_loop+0x98a>
    22dc:	ea 30       	cpi	r30, 0x0A	; 10
    22de:	09 f0       	breq	.+2      	; 0x22e2 <parser_loop+0x98a>
    22e0:	f8 cd       	rjmp	.-1040   	; 0x1ed2 <parser_loop+0x57a>
    22e2:	80 91 a6 0d 	lds	r24, 0x0DA6
    22e6:	90 91 a7 0d 	lds	r25, 0x0DA7
    22ea:	90 93 aa 0d 	sts	0x0DAA, r25
    22ee:	80 93 a9 0d 	sts	0x0DA9, r24
    22f2:	75 c0       	rjmp	.+234    	; 0x23de <parser_loop+0xa86>
    22f4:	8c 91       	ld	r24, X
    22f6:	86 34       	cpi	r24, 0x46	; 70
    22f8:	f9 f0       	breq	.+62     	; 0x2338 <parser_loop+0x9e0>
    22fa:	87 34       	cpi	r24, 0x47	; 71
    22fc:	09 f0       	breq	.+2      	; 0x2300 <parser_loop+0x9a8>
    22fe:	88 cb       	rjmp	.-2288   	; 0x1a10 <parser_loop+0xb8>
    2300:	80 91 9f 0d 	lds	r24, 0x0D9F
    2304:	8c 30       	cpi	r24, 0x0C	; 12
    2306:	b1 f4       	brne	.+44     	; 0x2334 <parser_loop+0x9dc>
    2308:	12 96       	adiw	r26, 0x02	; 2
    230a:	8d 91       	ld	r24, X+
    230c:	9c 91       	ld	r25, X
    230e:	13 97       	sbiw	r26, 0x03	; 3
    2310:	90 93 9e 0d 	sts	0x0D9E, r25
    2314:	80 93 9d 0d 	sts	0x0D9D, r24
    2318:	14 96       	adiw	r26, 0x04	; 4
    231a:	8d 91       	ld	r24, X+
    231c:	9c 91       	ld	r25, X
    231e:	15 97       	sbiw	r26, 0x05	; 5
    2320:	90 93 8f 0d 	sts	0x0D8F, r25
    2324:	80 93 8e 0d 	sts	0x0D8E, r24
    2328:	80 91 a6 0d 	lds	r24, 0x0DA6
    232c:	90 91 a7 0d 	lds	r25, 0x0DA7
    2330:	06 96       	adiw	r24, 0x06	; 6
    2332:	4b c0       	rjmp	.+150    	; 0x23ca <parser_loop+0xa72>
    2334:	16 96       	adiw	r26, 0x06	; 6
    2336:	4f c0       	rjmp	.+158    	; 0x23d6 <parser_loop+0xa7e>
    2338:	80 91 9f 0d 	lds	r24, 0x0D9F
    233c:	83 30       	cpi	r24, 0x03	; 3
    233e:	09 f0       	breq	.+2      	; 0x2342 <parser_loop+0x9ea>
    2340:	49 c0       	rjmp	.+146    	; 0x23d4 <parser_loop+0xa7c>
    2342:	e0 91 8e 0d 	lds	r30, 0x0D8E
    2346:	f0 91 8f 0d 	lds	r31, 0x0D8F
    234a:	31 97       	sbiw	r30, 0x01	; 1
    234c:	e0 81       	ld	r30, Z
    234e:	11 96       	adiw	r26, 0x01	; 1
    2350:	8c 91       	ld	r24, X
    2352:	11 97       	sbiw	r26, 0x01	; 1
    2354:	e8 17       	cp	r30, r24
    2356:	f1 f5       	brne	.+124    	; 0x23d4 <parser_loop+0xa7c>
    2358:	8e 2f       	mov	r24, r30
    235a:	90 e0       	ldi	r25, 0x00	; 0
    235c:	81 54       	subi	r24, 0x41	; 65
    235e:	90 40       	sbci	r25, 0x00	; 0
    2360:	88 0f       	add	r24, r24
    2362:	99 1f       	adc	r25, r25
    2364:	e0 91 ad 0d 	lds	r30, 0x0DAD
    2368:	f0 91 ae 0d 	lds	r31, 0x0DAE
    236c:	e8 0f       	add	r30, r24
    236e:	f9 1f       	adc	r31, r25
    2370:	20 81       	ld	r18, Z
    2372:	31 81       	ldd	r19, Z+1	; 0x01
    2374:	14 96       	adiw	r26, 0x04	; 4
    2376:	8d 91       	ld	r24, X+
    2378:	9c 91       	ld	r25, X
    237a:	15 97       	sbiw	r26, 0x05	; 5
    237c:	28 0f       	add	r18, r24
    237e:	39 1f       	adc	r19, r25
    2380:	31 83       	std	Z+1, r19	; 0x01
    2382:	20 83       	st	Z, r18
    2384:	14 96       	adiw	r26, 0x04	; 4
    2386:	8d 91       	ld	r24, X+
    2388:	9c 91       	ld	r25, X
    238a:	15 97       	sbiw	r26, 0x05	; 5
    238c:	89 2b       	or	r24, r25
    238e:	c1 f0       	breq	.+48     	; 0x23c0 <parser_loop+0xa68>
    2390:	12 96       	adiw	r26, 0x02	; 2
    2392:	8d 91       	ld	r24, X+
    2394:	9c 91       	ld	r25, X
    2396:	13 97       	sbiw	r26, 0x03	; 3
    2398:	82 17       	cp	r24, r18
    239a:	93 07       	cpc	r25, r19
    239c:	88 f0       	brcs	.+34     	; 0x23c0 <parser_loop+0xa68>
    239e:	18 96       	adiw	r26, 0x08	; 8
    23a0:	8d 91       	ld	r24, X+
    23a2:	9c 91       	ld	r25, X
    23a4:	19 97       	sbiw	r26, 0x09	; 9
    23a6:	90 93 8f 0d 	sts	0x0D8F, r25
    23aa:	80 93 8e 0d 	sts	0x0D8E, r24
    23ae:	16 96       	adiw	r26, 0x06	; 6
    23b0:	8d 91       	ld	r24, X+
    23b2:	9c 91       	ld	r25, X
    23b4:	17 97       	sbiw	r26, 0x07	; 7
    23b6:	90 93 9e 0d 	sts	0x0D9E, r25
    23ba:	80 93 9d 0d 	sts	0x0D9D, r24
    23be:	23 cd       	rjmp	.-1466   	; 0x1e06 <parser_loop+0x4ae>
    23c0:	80 91 a9 0d 	lds	r24, 0x0DA9
    23c4:	90 91 aa 0d 	lds	r25, 0x0DAA
    23c8:	0a 96       	adiw	r24, 0x0a	; 10
    23ca:	90 93 a7 0d 	sts	0x0DA7, r25
    23ce:	80 93 a6 0d 	sts	0x0DA6, r24
    23d2:	19 cd       	rjmp	.-1486   	; 0x1e06 <parser_loop+0x4ae>
    23d4:	1a 96       	adiw	r26, 0x0a	; 10
    23d6:	b0 93 aa 0d 	sts	0x0DAA, r27
    23da:	a0 93 a9 0d 	sts	0x0DA9, r26
    23de:	a0 91 a9 0d 	lds	r26, 0x0DA9
    23e2:	b0 91 aa 0d 	lds	r27, 0x0DAA
    23e6:	fd e0       	ldi	r31, 0x0D	; 13
    23e8:	a9 38       	cpi	r26, 0x89	; 137
    23ea:	bf 07       	cpc	r27, r31
    23ec:	08 f4       	brcc	.+2      	; 0x23f0 <parser_loop+0xa98>
    23ee:	82 cf       	rjmp	.-252    	; 0x22f4 <parser_loop+0x99c>
    23f0:	88 e0       	ldi	r24, 0x08	; 8
    23f2:	70 cd       	rjmp	.-1312   	; 0x1ed4 <parser_loop+0x57c>
    23f4:	0e 94 3e 05 	call	0xa7c	; 0xa7c <ignorespace>
    23f8:	e0 91 8e 0d 	lds	r30, 0x0D8E
    23fc:	f0 91 8f 0d 	lds	r31, 0x0D8F
    2400:	f0 80       	ld	r15, Z
    2402:	8f 2d       	mov	r24, r15
    2404:	81 54       	subi	r24, 0x41	; 65
    2406:	8a 31       	cpi	r24, 0x1A	; 26
    2408:	10 f0       	brcs	.+4      	; 0x240e <parser_loop+0xab6>
    240a:	87 e0       	ldi	r24, 0x07	; 7
    240c:	63 cd       	rjmp	.-1338   	; 0x1ed4 <parser_loop+0x57c>
    240e:	c0 91 ad 0d 	lds	r28, 0x0DAD
    2412:	d0 91 ae 0d 	lds	r29, 0x0DAE
    2416:	31 96       	adiw	r30, 0x01	; 1
    2418:	f0 93 8f 0d 	sts	0x0D8F, r31
    241c:	e0 93 8e 0d 	sts	0x0D8E, r30
    2420:	0e 94 3e 05 	call	0xa7c	; 0xa7c <ignorespace>
    2424:	e0 91 8e 0d 	lds	r30, 0x0D8E
    2428:	f0 91 8f 0d 	lds	r31, 0x0D8F
    242c:	e0 81       	ld	r30, Z
    242e:	ea 30       	cpi	r30, 0x0A	; 10
    2430:	19 f0       	breq	.+6      	; 0x2438 <parser_loop+0xae0>
    2432:	ea 33       	cpi	r30, 0x3A	; 58
    2434:	09 f0       	breq	.+2      	; 0x2438 <parser_loop+0xae0>
    2436:	4d cd       	rjmp	.-1382   	; 0x1ed2 <parser_loop+0x57a>
    2438:	30 92 c1 0d 	sts	0x0DC1, r3
    243c:	20 92 c0 0d 	sts	0x0DC0, r2
    2440:	10 92 90 0d 	sts	0x0D90, r1
    2444:	ea 9a       	sbi	0x1d, 2	; 29
    2446:	00 e0       	ldi	r16, 0x00	; 0
    2448:	80 91 c2 0d 	lds	r24, 0x0DC2
    244c:	90 91 c3 0d 	lds	r25, 0x0DC3
    2450:	0e 94 80 17 	call	0x2f00	; 0x2f00 <fgetc>
    2454:	18 2f       	mov	r17, r24
    2456:	80 91 a5 0d 	lds	r24, 0x0DA5
    245a:	81 30       	cpi	r24, 0x01	; 1
    245c:	09 f4       	brne	.+2      	; 0x2460 <parser_loop+0xb08>
    245e:	d3 cc       	rjmp	.-1626   	; 0x1e06 <parser_loop+0x4ae>
    2460:	1a 30       	cpi	r17, 0x0A	; 10
    2462:	39 f1       	breq	.+78     	; 0x24b2 <parser_loop+0xb5a>
    2464:	1b 30       	cpi	r17, 0x0B	; 11
    2466:	20 f4       	brcc	.+8      	; 0x2470 <parser_loop+0xb18>
    2468:	18 30       	cpi	r17, 0x08	; 8
    246a:	09 f0       	breq	.+2      	; 0x246e <parser_loop+0xb16>
    246c:	46 c0       	rjmp	.+140    	; 0x24fa <parser_loop+0xba2>
    246e:	27 c0       	rjmp	.+78     	; 0x24be <parser_loop+0xb66>
    2470:	1d 30       	cpi	r17, 0x0D	; 13
    2472:	f9 f0       	breq	.+62     	; 0x24b2 <parser_loop+0xb5a>
    2474:	1d 32       	cpi	r17, 0x2D	; 45
    2476:	09 f0       	breq	.+2      	; 0x247a <parser_loop+0xb22>
    2478:	40 c0       	rjmp	.+128    	; 0x24fa <parser_loop+0xba2>
    247a:	00 23       	and	r16, r16
    247c:	29 f7       	brne	.-54     	; 0x2448 <parser_loop+0xaf0>
    247e:	60 91 c4 0d 	lds	r22, 0x0DC4
    2482:	70 91 c5 0d 	lds	r23, 0x0DC5
    2486:	8d e2       	ldi	r24, 0x2D	; 45
    2488:	90 e0       	ldi	r25, 0x00	; 0
    248a:	0e 94 d6 17 	call	0x2fac	; 0x2fac <fputc>
    248e:	e0 91 c0 0d 	lds	r30, 0x0DC0
    2492:	f0 91 c1 0d 	lds	r31, 0x0DC1
    2496:	10 83       	st	Z, r17
    2498:	e0 91 c0 0d 	lds	r30, 0x0DC0
    249c:	f0 91 c1 0d 	lds	r31, 0x0DC1
    24a0:	31 96       	adiw	r30, 0x01	; 1
    24a2:	f0 93 c1 0d 	sts	0x0DC1, r31
    24a6:	e0 93 c0 0d 	sts	0x0DC0, r30
    24aa:	31 97       	sbiw	r30, 0x01	; 1
    24ac:	11 82       	std	Z+1, r1	; 0x01
    24ae:	01 e0       	ldi	r16, 0x01	; 1
    24b0:	cb cf       	rjmp	.-106    	; 0x2448 <parser_loop+0xaf0>
    24b2:	e0 91 c0 0d 	lds	r30, 0x0DC0
    24b6:	f0 91 c1 0d 	lds	r31, 0x0DC1
    24ba:	50 82       	st	Z, r5
    24bc:	40 c0       	rjmp	.+128    	; 0x253e <parser_loop+0xbe6>
    24be:	80 91 c0 0d 	lds	r24, 0x0DC0
    24c2:	90 91 c1 0d 	lds	r25, 0x0DC1
    24c6:	80 59       	subi	r24, 0x90	; 144
    24c8:	9d 40       	sbci	r25, 0x0D	; 13
    24ca:	09 f0       	breq	.+2      	; 0x24ce <parser_loop+0xb76>
    24cc:	18 f4       	brcc	.+6      	; 0x24d4 <parser_loop+0xb7c>
    24ce:	0e 94 de 04 	call	0x9bc	; 0x9bc <do_beep>
    24d2:	ba cf       	rjmp	.-140    	; 0x2448 <parser_loop+0xaf0>
    24d4:	60 91 c4 0d 	lds	r22, 0x0DC4
    24d8:	70 91 c5 0d 	lds	r23, 0x0DC5
    24dc:	88 e0       	ldi	r24, 0x08	; 8
    24de:	90 e0       	ldi	r25, 0x00	; 0
    24e0:	0e 94 d6 17 	call	0x2fac	; 0x2fac <fputc>
    24e4:	80 91 c0 0d 	lds	r24, 0x0DC0
    24e8:	90 91 c1 0d 	lds	r25, 0x0DC1
    24ec:	01 97       	sbiw	r24, 0x01	; 1
    24ee:	90 93 c1 0d 	sts	0x0DC1, r25
    24f2:	80 93 c0 0d 	sts	0x0DC0, r24
    24f6:	01 50       	subi	r16, 0x01	; 1
    24f8:	a7 cf       	rjmp	.-178    	; 0x2448 <parser_loop+0xaf0>
    24fa:	81 2f       	mov	r24, r17
    24fc:	80 53       	subi	r24, 0x30	; 48
    24fe:	8a 30       	cpi	r24, 0x0A	; 10
    2500:	f0 f4       	brcc	.+60     	; 0x253e <parser_loop+0xbe6>
    2502:	06 30       	cpi	r16, 0x06	; 6
    2504:	d0 f4       	brcc	.+52     	; 0x253a <parser_loop+0xbe2>
    2506:	60 91 c4 0d 	lds	r22, 0x0DC4
    250a:	70 91 c5 0d 	lds	r23, 0x0DC5
    250e:	81 2f       	mov	r24, r17
    2510:	90 e0       	ldi	r25, 0x00	; 0
    2512:	0e 94 d6 17 	call	0x2fac	; 0x2fac <fputc>
    2516:	e0 91 c0 0d 	lds	r30, 0x0DC0
    251a:	f0 91 c1 0d 	lds	r31, 0x0DC1
    251e:	10 83       	st	Z, r17
    2520:	0f 5f       	subi	r16, 0xFF	; 255
    2522:	e0 91 c0 0d 	lds	r30, 0x0DC0
    2526:	f0 91 c1 0d 	lds	r31, 0x0DC1
    252a:	31 96       	adiw	r30, 0x01	; 1
    252c:	f0 93 c1 0d 	sts	0x0DC1, r31
    2530:	e0 93 c0 0d 	sts	0x0DC0, r30
    2534:	31 97       	sbiw	r30, 0x01	; 1
    2536:	11 82       	std	Z+1, r1	; 0x01
    2538:	02 c0       	rjmp	.+4      	; 0x253e <parser_loop+0xbe6>
    253a:	0e 94 de 04 	call	0x9bc	; 0x9bc <do_beep>
    253e:	1a 30       	cpi	r17, 0x0A	; 10
    2540:	19 f0       	breq	.+6      	; 0x2548 <parser_loop+0xbf0>
    2542:	1d 30       	cpi	r17, 0x0D	; 13
    2544:	09 f0       	breq	.+2      	; 0x2548 <parser_loop+0xbf0>
    2546:	80 cf       	rjmp	.-256    	; 0x2448 <parser_loop+0xaf0>
    2548:	80 91 c4 0d 	lds	r24, 0x0DC4
    254c:	90 91 c5 0d 	lds	r25, 0x0DC5
    2550:	0e 94 79 06 	call	0xcf2	; 0xcf2 <newline>
    2554:	80 e9       	ldi	r24, 0x90	; 144
    2556:	9d e0       	ldi	r25, 0x0D	; 13
    2558:	0e 94 51 06 	call	0xca2	; 0xca2 <str_to_num>
    255c:	2f 2d       	mov	r18, r15
    255e:	30 e0       	ldi	r19, 0x00	; 0
    2560:	21 54       	subi	r18, 0x41	; 65
    2562:	30 40       	sbci	r19, 0x00	; 0
    2564:	22 0f       	add	r18, r18
    2566:	33 1f       	adc	r19, r19
    2568:	c2 0f       	add	r28, r18
    256a:	d3 1f       	adc	r29, r19
    256c:	99 83       	std	Y+1, r25	; 0x01
    256e:	88 83       	st	Y, r24
    2570:	4a cc       	rjmp	.-1900   	; 0x1e06 <parser_loop+0x4ae>
    2572:	e0 91 8e 0d 	lds	r30, 0x0D8E
    2576:	f0 91 8f 0d 	lds	r31, 0x0D8F
    257a:	10 81       	ld	r17, Z
    257c:	81 2f       	mov	r24, r17
    257e:	81 54       	subi	r24, 0x41	; 65
    2580:	8a 31       	cpi	r24, 0x1A	; 26
    2582:	08 f0       	brcs	.+2      	; 0x2586 <parser_loop+0xc2e>
    2584:	a6 cc       	rjmp	.-1716   	; 0x1ed2 <parser_loop+0x57a>
    2586:	c0 91 ad 0d 	lds	r28, 0x0DAD
    258a:	d0 91 ae 0d 	lds	r29, 0x0DAE
    258e:	03 c0       	rjmp	.+6      	; 0x2596 <parser_loop+0xc3e>
    2590:	8f ef       	ldi	r24, 0xFF	; 255
    2592:	80 93 bf 0d 	sts	0x0DBF, r24
    2596:	31 96       	adiw	r30, 0x01	; 1
    2598:	f0 93 8f 0d 	sts	0x0D8F, r31
    259c:	e0 93 8e 0d 	sts	0x0D8E, r30
    25a0:	e0 91 8e 0d 	lds	r30, 0x0D8E
    25a4:	f0 91 8f 0d 	lds	r31, 0x0D8F
    25a8:	80 81       	ld	r24, Z
    25aa:	81 54       	subi	r24, 0x41	; 65
    25ac:	8a 31       	cpi	r24, 0x1A	; 26
    25ae:	80 f3       	brcs	.-32     	; 0x2590 <parser_loop+0xc38>
    25b0:	0e 94 3e 05 	call	0xa7c	; 0xa7c <ignorespace>
    25b4:	e0 91 8e 0d 	lds	r30, 0x0D8E
    25b8:	f0 91 8f 0d 	lds	r31, 0x0D8F
    25bc:	80 81       	ld	r24, Z
    25be:	8d 33       	cpi	r24, 0x3D	; 61
    25c0:	11 f0       	breq	.+4      	; 0x25c6 <parser_loop+0xc6e>
    25c2:	8f e0       	ldi	r24, 0x0F	; 15
    25c4:	87 cc       	rjmp	.-1778   	; 0x1ed4 <parser_loop+0x57c>
    25c6:	80 91 bf 0d 	lds	r24, 0x0DBF
    25ca:	8f 3f       	cpi	r24, 0xFF	; 255
    25cc:	11 f4       	brne	.+4      	; 0x25d2 <parser_loop+0xc7a>
    25ce:	81 e1       	ldi	r24, 0x11	; 17
    25d0:	81 cc       	rjmp	.-1790   	; 0x1ed4 <parser_loop+0x57c>
    25d2:	31 96       	adiw	r30, 0x01	; 1
    25d4:	f0 93 8f 0d 	sts	0x0D8F, r31
    25d8:	e0 93 8e 0d 	sts	0x0D8E, r30
    25dc:	0e 94 3e 05 	call	0xa7c	; 0xa7c <ignorespace>
    25e0:	0e 94 58 0c 	call	0x18b0	; 0x18b0 <parse_step1>
    25e4:	9c 01       	movw	r18, r24
    25e6:	80 91 bf 0d 	lds	r24, 0x0DBF
    25ea:	88 23       	and	r24, r24
    25ec:	09 f0       	breq	.+2      	; 0x25f0 <parser_loop+0xc98>
    25ee:	1e cb       	rjmp	.-2500   	; 0x1c2c <parser_loop+0x2d4>
    25f0:	e0 91 8e 0d 	lds	r30, 0x0D8E
    25f4:	f0 91 8f 0d 	lds	r31, 0x0D8F
    25f8:	e0 81       	ld	r30, Z
    25fa:	ea 30       	cpi	r30, 0x0A	; 10
    25fc:	19 f0       	breq	.+6      	; 0x2604 <parser_loop+0xcac>
    25fe:	ea 33       	cpi	r30, 0x3A	; 58
    2600:	09 f0       	breq	.+2      	; 0x2604 <parser_loop+0xcac>
    2602:	67 cc       	rjmp	.-1842   	; 0x1ed2 <parser_loop+0x57a>
    2604:	81 2f       	mov	r24, r17
    2606:	90 e0       	ldi	r25, 0x00	; 0
    2608:	81 54       	subi	r24, 0x41	; 65
    260a:	90 40       	sbci	r25, 0x00	; 0
    260c:	88 0f       	add	r24, r24
    260e:	99 1f       	adc	r25, r25
    2610:	c8 0f       	add	r28, r24
    2612:	d9 1f       	adc	r29, r25
    2614:	39 83       	std	Y+1, r19	; 0x01
    2616:	28 83       	st	Y, r18
    2618:	f6 cb       	rjmp	.-2068   	; 0x1e06 <parser_loop+0x4ae>
    261a:	0e 94 58 0c 	call	0x18b0	; 0x18b0 <parse_step1>
    261e:	ec 01       	movw	r28, r24
    2620:	80 91 bf 0d 	lds	r24, 0x0DBF
    2624:	88 23       	and	r24, r24
    2626:	09 f0       	breq	.+2      	; 0x262a <parser_loop+0xcd2>
    2628:	01 cb       	rjmp	.-2558   	; 0x1c2c <parser_loop+0x2d4>
    262a:	9c e0       	ldi	r25, 0x0C	; 12
    262c:	c0 35       	cpi	r28, 0x50	; 80
    262e:	d9 07       	cpc	r29, r25
    2630:	14 f0       	brlt	.+4      	; 0x2636 <parser_loop+0xcde>
    2632:	83 e1       	ldi	r24, 0x13	; 19
    2634:	4f cc       	rjmp	.-1890   	; 0x1ed4 <parser_loop+0x57c>
    2636:	0e 94 3e 05 	call	0xa7c	; 0xa7c <ignorespace>
    263a:	e0 91 8e 0d 	lds	r30, 0x0D8E
    263e:	f0 91 8f 0d 	lds	r31, 0x0D8F
    2642:	80 81       	ld	r24, Z
    2644:	8c 32       	cpi	r24, 0x2C	; 44
    2646:	09 f0       	breq	.+2      	; 0x264a <parser_loop+0xcf2>
    2648:	44 cc       	rjmp	.-1912   	; 0x1ed2 <parser_loop+0x57a>
    264a:	31 96       	adiw	r30, 0x01	; 1
    264c:	f0 93 8f 0d 	sts	0x0D8F, r31
    2650:	e0 93 8e 0d 	sts	0x0D8E, r30
    2654:	0e 94 3e 05 	call	0xa7c	; 0xa7c <ignorespace>
    2658:	0e 94 58 0c 	call	0x18b0	; 0x18b0 <parse_step1>
    265c:	9c 01       	movw	r18, r24
    265e:	80 91 bf 0d 	lds	r24, 0x0DBF
    2662:	88 23       	and	r24, r24
    2664:	09 f0       	breq	.+2      	; 0x2668 <parser_loop+0xd10>
    2666:	e2 ca       	rjmp	.-2620   	; 0x1c2c <parser_loop+0x2d4>
    2668:	2f 3f       	cpi	r18, 0xFF	; 255
    266a:	31 05       	cpc	r19, r1
    266c:	19 f0       	breq	.+6      	; 0x2674 <parser_loop+0xd1c>
    266e:	10 f0       	brcs	.+4      	; 0x2674 <parser_loop+0xd1c>
    2670:	82 e1       	ldi	r24, 0x12	; 18
    2672:	30 cc       	rjmp	.-1952   	; 0x1ed4 <parser_loop+0x57c>
    2674:	e0 91 8e 0d 	lds	r30, 0x0D8E
    2678:	f0 91 8f 0d 	lds	r31, 0x0D8F
    267c:	e0 81       	ld	r30, Z
    267e:	ea 30       	cpi	r30, 0x0A	; 10
    2680:	19 f0       	breq	.+6      	; 0x2688 <parser_loop+0xd30>
    2682:	ea 33       	cpi	r30, 0x3A	; 58
    2684:	09 f0       	breq	.+2      	; 0x2688 <parser_loop+0xd30>
    2686:	25 cc       	rjmp	.-1974   	; 0x1ed2 <parser_loop+0x57a>
    2688:	c5 5c       	subi	r28, 0xC5	; 197
    268a:	de 4f       	sbci	r29, 0xFE	; 254
    268c:	28 83       	st	Y, r18
    268e:	bb cb       	rjmp	.-2186   	; 0x1e06 <parser_loop+0x4ae>
    2690:	0e 94 58 0c 	call	0x18b0	; 0x18b0 <parse_step1>
    2694:	28 2f       	mov	r18, r24
    2696:	80 91 bf 0d 	lds	r24, 0x0DBF
    269a:	88 23       	and	r24, r24
    269c:	09 f0       	breq	.+2      	; 0x26a0 <parser_loop+0xd48>
    269e:	c6 ca       	rjmp	.-2676   	; 0x1c2c <parser_loop+0x2d4>
    26a0:	02 2f       	mov	r16, r18
    26a2:	19 2f       	mov	r17, r25
    26a4:	0f 3f       	cpi	r16, 0xFF	; 255
    26a6:	11 05       	cpc	r17, r1
    26a8:	11 f0       	breq	.+4      	; 0x26ae <parser_loop+0xd56>
    26aa:	08 f0       	brcs	.+2      	; 0x26ae <parser_loop+0xd56>
    26ac:	1e c1       	rjmp	.+572    	; 0x28ea <parser_loop+0xf92>
    26ae:	e0 91 8e 0d 	lds	r30, 0x0D8E
    26b2:	f0 91 8f 0d 	lds	r31, 0x0D8F
    26b6:	80 81       	ld	r24, Z
    26b8:	8c 32       	cpi	r24, 0x2C	; 44
    26ba:	09 f0       	breq	.+2      	; 0x26be <parser_loop+0xd66>
    26bc:	0a cc       	rjmp	.-2028   	; 0x1ed2 <parser_loop+0x57a>
    26be:	31 96       	adiw	r30, 0x01	; 1
    26c0:	f0 93 8f 0d 	sts	0x0D8F, r31
    26c4:	e0 93 8e 0d 	sts	0x0D8E, r30
    26c8:	0e 94 58 0c 	call	0x18b0	; 0x18b0 <parse_step1>
    26cc:	28 2f       	mov	r18, r24
    26ce:	80 91 bf 0d 	lds	r24, 0x0DBF
    26d2:	88 23       	and	r24, r24
    26d4:	09 f0       	breq	.+2      	; 0x26d8 <parser_loop+0xd80>
    26d6:	aa ca       	rjmp	.-2732   	; 0x1c2c <parser_loop+0x2d4>
    26d8:	c2 2f       	mov	r28, r18
    26da:	d9 2f       	mov	r29, r25
    26dc:	c0 3f       	cpi	r28, 0xF0	; 240
    26de:	d1 05       	cpc	r29, r1
    26e0:	08 f0       	brcs	.+2      	; 0x26e4 <parser_loop+0xd8c>
    26e2:	03 c1       	rjmp	.+518    	; 0x28ea <parser_loop+0xf92>
    26e4:	e0 91 8e 0d 	lds	r30, 0x0D8E
    26e8:	f0 91 8f 0d 	lds	r31, 0x0D8F
    26ec:	80 81       	ld	r24, Z
    26ee:	8c 32       	cpi	r24, 0x2C	; 44
    26f0:	09 f0       	breq	.+2      	; 0x26f4 <parser_loop+0xd9c>
    26f2:	ef cb       	rjmp	.-2082   	; 0x1ed2 <parser_loop+0x57a>
    26f4:	31 96       	adiw	r30, 0x01	; 1
    26f6:	f0 93 8f 0d 	sts	0x0D8F, r31
    26fa:	e0 93 8e 0d 	sts	0x0D8E, r30
    26fe:	0e 94 58 0c 	call	0x18b0	; 0x18b0 <parse_step1>
    2702:	28 2f       	mov	r18, r24
    2704:	80 91 bf 0d 	lds	r24, 0x0DBF
    2708:	88 23       	and	r24, r24
    270a:	09 f0       	breq	.+2      	; 0x270e <parser_loop+0xdb6>
    270c:	8f ca       	rjmp	.-2786   	; 0x1c2c <parser_loop+0x2d4>
    270e:	42 2f       	mov	r20, r18
    2710:	59 2f       	mov	r21, r25
    2712:	40 38       	cpi	r20, 0x80	; 128
    2714:	51 05       	cpc	r21, r1
    2716:	08 f0       	brcs	.+2      	; 0x271a <parser_loop+0xdc2>
    2718:	bb c0       	rjmp	.+374    	; 0x2890 <parser_loop+0xf38>
    271a:	80 2f       	mov	r24, r16
    271c:	6c 2f       	mov	r22, r28
    271e:	0e 94 f9 09 	call	0x13f2	; 0x13f2 <put_pixel>
    2722:	29 cc       	rjmp	.-1966   	; 0x1f76 <parser_loop+0x61e>
    2724:	0e 94 58 0c 	call	0x18b0	; 0x18b0 <parse_step1>
    2728:	ec 01       	movw	r28, r24
    272a:	80 91 bf 0d 	lds	r24, 0x0DBF
    272e:	88 23       	and	r24, r24
    2730:	09 f0       	breq	.+2      	; 0x2734 <parser_loop+0xddc>
    2732:	7c ca       	rjmp	.-2824   	; 0x1c2c <parser_loop+0x2d4>
    2734:	c8 30       	cpi	r28, 0x08	; 8
    2736:	d1 05       	cpc	r29, r1
    2738:	c0 f5       	brcc	.+112    	; 0x27aa <parser_loop+0xe52>
    273a:	e0 91 8e 0d 	lds	r30, 0x0D8E
    273e:	f0 91 8f 0d 	lds	r31, 0x0D8F
    2742:	80 81       	ld	r24, Z
    2744:	8c 32       	cpi	r24, 0x2C	; 44
    2746:	09 f0       	breq	.+2      	; 0x274a <parser_loop+0xdf2>
    2748:	c4 cb       	rjmp	.-2168   	; 0x1ed2 <parser_loop+0x57a>
    274a:	31 96       	adiw	r30, 0x01	; 1
    274c:	f0 93 8f 0d 	sts	0x0D8F, r31
    2750:	e0 93 8e 0d 	sts	0x0D8E, r30
    2754:	0e 94 58 0c 	call	0x18b0	; 0x18b0 <parse_step1>
    2758:	ac 01       	movw	r20, r24
    275a:	80 91 bf 0d 	lds	r24, 0x0DBF
    275e:	88 23       	and	r24, r24
    2760:	09 f0       	breq	.+2      	; 0x2764 <parser_loop+0xe0c>
    2762:	64 ca       	rjmp	.-2872   	; 0x1c2c <parser_loop+0x2d4>
    2764:	21 e0       	ldi	r18, 0x01	; 1
    2766:	30 e0       	ldi	r19, 0x00	; 0
    2768:	02 c0       	rjmp	.+4      	; 0x276e <parser_loop+0xe16>
    276a:	22 0f       	add	r18, r18
    276c:	33 1f       	adc	r19, r19
    276e:	ca 95       	dec	r28
    2770:	e2 f7       	brpl	.-8      	; 0x276a <parser_loop+0xe12>
    2772:	41 15       	cp	r20, r1
    2774:	51 05       	cpc	r21, r1
    2776:	29 f0       	breq	.+10     	; 0x2782 <parser_loop+0xe2a>
    2778:	41 30       	cpi	r20, 0x01	; 1
    277a:	51 05       	cpc	r21, r1
    277c:	09 f0       	breq	.+2      	; 0x2780 <parser_loop+0xe28>
    277e:	a9 cb       	rjmp	.-2222   	; 0x1ed2 <parser_loop+0x57a>
    2780:	05 c0       	rjmp	.+10     	; 0x278c <parser_loop+0xe34>
    2782:	91 b1       	in	r25, 0x01	; 1
    2784:	82 2f       	mov	r24, r18
    2786:	80 95       	com	r24
    2788:	89 23       	and	r24, r25
    278a:	02 c0       	rjmp	.+4      	; 0x2790 <parser_loop+0xe38>
    278c:	81 b1       	in	r24, 0x01	; 1
    278e:	82 2b       	or	r24, r18
    2790:	81 b9       	out	0x01, r24	; 1
    2792:	f1 cb       	rjmp	.-2078   	; 0x1f76 <parser_loop+0x61e>
    2794:	0e 94 58 0c 	call	0x18b0	; 0x18b0 <parse_step1>
    2798:	ec 01       	movw	r28, r24
    279a:	80 91 bf 0d 	lds	r24, 0x0DBF
    279e:	88 23       	and	r24, r24
    27a0:	09 f0       	breq	.+2      	; 0x27a4 <parser_loop+0xe4c>
    27a2:	44 ca       	rjmp	.-2936   	; 0x1c2c <parser_loop+0x2d4>
    27a4:	c8 30       	cpi	r28, 0x08	; 8
    27a6:	d1 05       	cpc	r29, r1
    27a8:	10 f0       	brcs	.+4      	; 0x27ae <parser_loop+0xe56>
    27aa:	8c e0       	ldi	r24, 0x0C	; 12
    27ac:	93 cb       	rjmp	.-2266   	; 0x1ed4 <parser_loop+0x57c>
    27ae:	e0 91 8e 0d 	lds	r30, 0x0D8E
    27b2:	f0 91 8f 0d 	lds	r31, 0x0D8F
    27b6:	80 81       	ld	r24, Z
    27b8:	8c 32       	cpi	r24, 0x2C	; 44
    27ba:	09 f0       	breq	.+2      	; 0x27be <parser_loop+0xe66>
    27bc:	8a cb       	rjmp	.-2284   	; 0x1ed2 <parser_loop+0x57a>
    27be:	31 96       	adiw	r30, 0x01	; 1
    27c0:	f0 93 8f 0d 	sts	0x0D8F, r31
    27c4:	e0 93 8e 0d 	sts	0x0D8E, r30
    27c8:	0e 94 58 0c 	call	0x18b0	; 0x18b0 <parse_step1>
    27cc:	ac 01       	movw	r20, r24
    27ce:	80 91 bf 0d 	lds	r24, 0x0DBF
    27d2:	88 23       	and	r24, r24
    27d4:	09 f0       	breq	.+2      	; 0x27d8 <parser_loop+0xe80>
    27d6:	2a ca       	rjmp	.-2988   	; 0x1c2c <parser_loop+0x2d4>
    27d8:	21 e0       	ldi	r18, 0x01	; 1
    27da:	30 e0       	ldi	r19, 0x00	; 0
    27dc:	02 c0       	rjmp	.+4      	; 0x27e2 <parser_loop+0xe8a>
    27de:	22 0f       	add	r18, r18
    27e0:	33 1f       	adc	r19, r19
    27e2:	ca 95       	dec	r28
    27e4:	e2 f7       	brpl	.-8      	; 0x27de <parser_loop+0xe86>
    27e6:	41 15       	cp	r20, r1
    27e8:	51 05       	cpc	r21, r1
    27ea:	29 f0       	breq	.+10     	; 0x27f6 <parser_loop+0xe9e>
    27ec:	41 30       	cpi	r20, 0x01	; 1
    27ee:	51 05       	cpc	r21, r1
    27f0:	09 f0       	breq	.+2      	; 0x27f4 <parser_loop+0xe9c>
    27f2:	6f cb       	rjmp	.-2338   	; 0x1ed2 <parser_loop+0x57a>
    27f4:	05 c0       	rjmp	.+10     	; 0x2800 <parser_loop+0xea8>
    27f6:	92 b1       	in	r25, 0x02	; 2
    27f8:	82 2f       	mov	r24, r18
    27fa:	80 95       	com	r24
    27fc:	89 23       	and	r24, r25
    27fe:	02 c0       	rjmp	.+4      	; 0x2804 <parser_loop+0xeac>
    2800:	82 b1       	in	r24, 0x02	; 2
    2802:	82 2b       	or	r24, r18
    2804:	82 b9       	out	0x02, r24	; 2
    2806:	b7 cb       	rjmp	.-2194   	; 0x1f76 <parser_loop+0x61e>
    2808:	60 91 c4 0d 	lds	r22, 0x0DC4
    280c:	70 91 c5 0d 	lds	r23, 0x0DC5
    2810:	88 ec       	ldi	r24, 0xC8	; 200
    2812:	90 e0       	ldi	r25, 0x00	; 0
    2814:	0e 94 d6 17 	call	0x2fac	; 0x2fac <fputc>
    2818:	0e 94 8c 0a 	call	0x1518	; 0x1518 <uart_ansi_rst_clr>
    281c:	60 91 c4 0d 	lds	r22, 0x0DC4
    2820:	70 91 c5 0d 	lds	r23, 0x0DC5
    2824:	8c e3       	ldi	r24, 0x3C	; 60
    2826:	93 e0       	ldi	r25, 0x03	; 3
    2828:	0e 94 44 08 	call	0x1088	; 0x1088 <printmsg>
    282c:	80 91 ab 0d 	lds	r24, 0x0DAB
    2830:	90 91 ac 0d 	lds	r25, 0x0DAC
    2834:	90 93 a1 0d 	sts	0x0DA1, r25
    2838:	80 93 a0 0d 	sts	0x0DA0, r24
    283c:	0b c9       	rjmp	.-3562   	; 0x1a54 <parser_loop+0xfc>
    283e:	60 91 c4 0d 	lds	r22, 0x0DC4
    2842:	70 91 c5 0d 	lds	r23, 0x0DC5
    2846:	89 ec       	ldi	r24, 0xC9	; 201
    2848:	90 e0       	ldi	r25, 0x00	; 0
    284a:	0e 94 d6 17 	call	0x2fac	; 0x2fac <fputc>
    284e:	0e 94 8c 0a 	call	0x1518	; 0x1518 <uart_ansi_rst_clr>
    2852:	91 cb       	rjmp	.-2270   	; 0x1f76 <parser_loop+0x61e>
    2854:	0e 94 58 0c 	call	0x18b0	; 0x18b0 <parse_step1>
    2858:	48 2f       	mov	r20, r24
    285a:	80 91 bf 0d 	lds	r24, 0x0DBF
    285e:	88 23       	and	r24, r24
    2860:	09 f0       	breq	.+2      	; 0x2864 <parser_loop+0xf0c>
    2862:	e4 c9       	rjmp	.-3128   	; 0x1c2c <parser_loop+0x2d4>
    2864:	24 2f       	mov	r18, r20
    2866:	39 2f       	mov	r19, r25
    2868:	20 38       	cpi	r18, 0x80	; 128
    286a:	31 05       	cpc	r19, r1
    286c:	88 f4       	brcc	.+34     	; 0x2890 <parser_loop+0xf38>
    286e:	84 2f       	mov	r24, r20
    2870:	0e 94 56 0a 	call	0x14ac	; 0x14ac <text_color>
    2874:	80 cb       	rjmp	.-2304   	; 0x1f76 <parser_loop+0x61e>
    2876:	0e 94 58 0c 	call	0x18b0	; 0x18b0 <parse_step1>
    287a:	48 2f       	mov	r20, r24
    287c:	80 91 bf 0d 	lds	r24, 0x0DBF
    2880:	88 23       	and	r24, r24
    2882:	09 f0       	breq	.+2      	; 0x2886 <parser_loop+0xf2e>
    2884:	d3 c9       	rjmp	.-3162   	; 0x1c2c <parser_loop+0x2d4>
    2886:	24 2f       	mov	r18, r20
    2888:	39 2f       	mov	r19, r25
    288a:	20 38       	cpi	r18, 0x80	; 128
    288c:	31 05       	cpc	r19, r1
    288e:	10 f0       	brcs	.+4      	; 0x2894 <parser_loop+0xf3c>
    2890:	84 e1       	ldi	r24, 0x14	; 20
    2892:	20 cb       	rjmp	.-2496   	; 0x1ed4 <parser_loop+0x57c>
    2894:	84 2f       	mov	r24, r20
    2896:	0e 94 42 0a 	call	0x1484	; 0x1484 <paper_color>
    289a:	6d cb       	rjmp	.-2342   	; 0x1f76 <parser_loop+0x61e>
    289c:	0e 94 58 0c 	call	0x18b0	; 0x18b0 <parse_step1>
    28a0:	28 2f       	mov	r18, r24
    28a2:	80 91 bf 0d 	lds	r24, 0x0DBF
    28a6:	88 23       	and	r24, r24
    28a8:	09 f0       	breq	.+2      	; 0x28ac <parser_loop+0xf54>
    28aa:	c0 c9       	rjmp	.-3200   	; 0x1c2c <parser_loop+0x2d4>
    28ac:	c2 2f       	mov	r28, r18
    28ae:	d9 2f       	mov	r29, r25
    28b0:	c8 31       	cpi	r28, 0x18	; 24
    28b2:	d1 05       	cpc	r29, r1
    28b4:	d0 f4       	brcc	.+52     	; 0x28ea <parser_loop+0xf92>
    28b6:	e0 91 8e 0d 	lds	r30, 0x0D8E
    28ba:	f0 91 8f 0d 	lds	r31, 0x0D8F
    28be:	80 81       	ld	r24, Z
    28c0:	8c 32       	cpi	r24, 0x2C	; 44
    28c2:	09 f0       	breq	.+2      	; 0x28c6 <parser_loop+0xf6e>
    28c4:	06 cb       	rjmp	.-2548   	; 0x1ed2 <parser_loop+0x57a>
    28c6:	31 96       	adiw	r30, 0x01	; 1
    28c8:	f0 93 8f 0d 	sts	0x0D8F, r31
    28cc:	e0 93 8e 0d 	sts	0x0D8E, r30
    28d0:	0e 94 58 0c 	call	0x18b0	; 0x18b0 <parse_step1>
    28d4:	28 2f       	mov	r18, r24
    28d6:	80 91 bf 0d 	lds	r24, 0x0DBF
    28da:	88 23       	and	r24, r24
    28dc:	09 f0       	breq	.+2      	; 0x28e0 <parser_loop+0xf88>
    28de:	a6 c9       	rjmp	.-3252   	; 0x1c2c <parser_loop+0x2d4>
    28e0:	62 2f       	mov	r22, r18
    28e2:	79 2f       	mov	r23, r25
    28e4:	60 32       	cpi	r22, 0x20	; 32
    28e6:	71 05       	cpc	r23, r1
    28e8:	10 f0       	brcs	.+4      	; 0x28ee <parser_loop+0xf96>
    28ea:	80 e1       	ldi	r24, 0x10	; 16
    28ec:	f3 ca       	rjmp	.-2586   	; 0x1ed4 <parser_loop+0x57c>
    28ee:	8c 2f       	mov	r24, r28
    28f0:	0e 94 23 0a 	call	0x1446	; 0x1446 <locate_cursor>
    28f4:	40 cb       	rjmp	.-2432   	; 0x1f76 <parser_loop+0x61e>
    28f6:	e0 91 8e 0d 	lds	r30, 0x0D8E
    28fa:	f0 91 8f 0d 	lds	r31, 0x0D8F
    28fe:	e0 81       	ld	r30, Z
    2900:	ea 33       	cpi	r30, 0x3A	; 58
    2902:	81 f4       	brne	.+32     	; 0x2924 <parser_loop+0xfcc>
    2904:	80 91 c4 0d 	lds	r24, 0x0DC4
    2908:	90 91 c5 0d 	lds	r25, 0x0DC5
    290c:	0e 94 79 06 	call	0xcf2	; 0xcf2 <newline>
    2910:	80 91 8e 0d 	lds	r24, 0x0D8E
    2914:	90 91 8f 0d 	lds	r25, 0x0D8F
    2918:	01 96       	adiw	r24, 0x01	; 1
    291a:	90 93 8f 0d 	sts	0x0D8F, r25
    291e:	80 93 8e 0d 	sts	0x0D8E, r24
    2922:	71 ca       	rjmp	.-2846   	; 0x1e06 <parser_loop+0x4ae>
    2924:	ea 30       	cpi	r30, 0x0A	; 10
    2926:	09 f4       	brne	.+2      	; 0x292a <parser_loop+0xfd2>
    2928:	26 cb       	rjmp	.-2484   	; 0x1f76 <parser_loop+0x61e>
    292a:	0e 94 3e 05 	call	0xa7c	; 0xa7c <ignorespace>
    292e:	0e 94 f3 07 	call	0xfe6	; 0xfe6 <print_string>
    2932:	88 23       	and	r24, r24
    2934:	e1 f4       	brne	.+56     	; 0x296e <parser_loop+0x1016>
    2936:	e0 91 8e 0d 	lds	r30, 0x0D8E
    293a:	f0 91 8f 0d 	lds	r31, 0x0D8F
    293e:	e0 81       	ld	r30, Z
    2940:	e2 32       	cpi	r30, 0x22	; 34
    2942:	09 f4       	brne	.+2      	; 0x2946 <parser_loop+0xfee>
    2944:	1d c1       	rjmp	.+570    	; 0x2b80 <parser_loop+0x1228>
    2946:	e7 32       	cpi	r30, 0x27	; 39
    2948:	09 f4       	brne	.+2      	; 0x294c <parser_loop+0xff4>
    294a:	1a c1       	rjmp	.+564    	; 0x2b80 <parser_loop+0x1228>
    294c:	10 92 bf 0d 	sts	0x0DBF, r1
    2950:	0e 94 58 0c 	call	0x18b0	; 0x18b0 <parse_step1>
    2954:	9c 01       	movw	r18, r24
    2956:	80 91 bf 0d 	lds	r24, 0x0DBF
    295a:	88 23       	and	r24, r24
    295c:	09 f0       	breq	.+2      	; 0x2960 <parser_loop+0x1008>
    295e:	66 c9       	rjmp	.-3380   	; 0x1c2c <parser_loop+0x2d4>
    2960:	60 91 c4 0d 	lds	r22, 0x0DC4
    2964:	70 91 c5 0d 	lds	r23, 0x0DC5
    2968:	c9 01       	movw	r24, r18
    296a:	0e 94 7e 09 	call	0x12fc	; 0x12fc <printnum>
    296e:	e0 91 8e 0d 	lds	r30, 0x0D8E
    2972:	f0 91 8f 0d 	lds	r31, 0x0D8F
    2976:	80 81       	ld	r24, Z
    2978:	8c 32       	cpi	r24, 0x2C	; 44
    297a:	31 f4       	brne	.+12     	; 0x2988 <parser_loop+0x1030>
    297c:	31 96       	adiw	r30, 0x01	; 1
    297e:	f0 93 8f 0d 	sts	0x0D8F, r31
    2982:	e0 93 8e 0d 	sts	0x0D8E, r30
    2986:	d1 cf       	rjmp	.-94     	; 0x292a <parser_loop+0xfd2>
    2988:	8b 33       	cpi	r24, 0x3B	; 59
    298a:	71 f4       	brne	.+28     	; 0x29a8 <parser_loop+0x1050>
    298c:	9f 01       	movw	r18, r30
    298e:	2f 5f       	subi	r18, 0xFF	; 255
    2990:	3f 4f       	sbci	r19, 0xFF	; 255
    2992:	81 81       	ldd	r24, Z+1	; 0x01
    2994:	8a 30       	cpi	r24, 0x0A	; 10
    2996:	19 f0       	breq	.+6      	; 0x299e <parser_loop+0x1046>
    2998:	8a 33       	cpi	r24, 0x3A	; 58
    299a:	09 f0       	breq	.+2      	; 0x299e <parser_loop+0x1046>
    299c:	9a ca       	rjmp	.-2764   	; 0x1ed2 <parser_loop+0x57a>
    299e:	30 93 8f 0d 	sts	0x0D8F, r19
    29a2:	20 93 8e 0d 	sts	0x0D8E, r18
    29a6:	2f ca       	rjmp	.-2978   	; 0x1e06 <parser_loop+0x4ae>
    29a8:	8a 30       	cpi	r24, 0x0A	; 10
    29aa:	19 f0       	breq	.+6      	; 0x29b2 <parser_loop+0x105a>
    29ac:	8a 33       	cpi	r24, 0x3A	; 58
    29ae:	09 f0       	breq	.+2      	; 0x29b2 <parser_loop+0x105a>
    29b0:	90 ca       	rjmp	.-2784   	; 0x1ed2 <parser_loop+0x57a>
    29b2:	80 91 c4 0d 	lds	r24, 0x0DC4
    29b6:	90 91 c5 0d 	lds	r25, 0x0DC5
    29ba:	0e 94 79 06 	call	0xcf2	; 0xcf2 <newline>
    29be:	23 ca       	rjmp	.-3002   	; 0x1e06 <parser_loop+0x4ae>
    29c0:	8f ec       	ldi	r24, 0xCF	; 207
    29c2:	42 c0       	rjmp	.+132    	; 0x2a48 <parser_loop+0x10f0>
    29c4:	8e ec       	ldi	r24, 0xCE	; 206
    29c6:	40 c0       	rjmp	.+128    	; 0x2a48 <parser_loop+0x10f0>
    29c8:	0e 94 3e 05 	call	0xa7c	; 0xa7c <ignorespace>
    29cc:	0e 94 58 0c 	call	0x18b0	; 0x18b0 <parse_step1>
    29d0:	9c 01       	movw	r18, r24
    29d2:	80 91 bf 0d 	lds	r24, 0x0DBF
    29d6:	88 23       	and	r24, r24
    29d8:	09 f0       	breq	.+2      	; 0x29dc <parser_loop+0x1084>
    29da:	28 c9       	rjmp	.-3504   	; 0x1c2c <parser_loop+0x2d4>
    29dc:	28 37       	cpi	r18, 0x78	; 120
    29de:	31 05       	cpc	r19, r1
    29e0:	c9 f0       	breq	.+50     	; 0x2a14 <parser_loop+0x10bc>
    29e2:	29 37       	cpi	r18, 0x79	; 121
    29e4:	31 05       	cpc	r19, r1
    29e6:	28 f4       	brcc	.+10     	; 0x29f2 <parser_loop+0x109a>
    29e8:	2c 33       	cpi	r18, 0x3C	; 60
    29ea:	31 05       	cpc	r19, r1
    29ec:	09 f0       	breq	.+2      	; 0x29f0 <parser_loop+0x1098>
    29ee:	0b ca       	rjmp	.-3050   	; 0x1e06 <parser_loop+0x4ae>
    29f0:	08 c0       	rjmp	.+16     	; 0x2a02 <parser_loop+0x10aa>
    29f2:	26 39       	cpi	r18, 0x96	; 150
    29f4:	31 05       	cpc	r19, r1
    29f6:	b9 f0       	breq	.+46     	; 0x2a26 <parser_loop+0x10ce>
    29f8:	24 3b       	cpi	r18, 0xB4	; 180
    29fa:	31 05       	cpc	r19, r1
    29fc:	09 f0       	breq	.+2      	; 0x2a00 <parser_loop+0x10a8>
    29fe:	03 ca       	rjmp	.-3066   	; 0x1e06 <parser_loop+0x4ae>
    2a00:	1b c0       	rjmp	.+54     	; 0x2a38 <parser_loop+0x10e0>
    2a02:	b8 b8       	out	0x08, r11	; 8
    2a04:	4c 99       	sbic	0x09, 4	; 9
    2a06:	fe cf       	rjmp	.-4      	; 0x2a04 <parser_loop+0x10ac>
    2a08:	5d 9a       	sbi	0x0b, 5	; 11
    2a0a:	4c 9b       	sbis	0x09, 4	; 9
    2a0c:	fe cf       	rjmp	.-4      	; 0x2a0a <parser_loop+0x10b2>
    2a0e:	5d 98       	cbi	0x0b, 5	; 11
    2a10:	18 b8       	out	0x08, r1	; 8
    2a12:	1b c0       	rjmp	.+54     	; 0x2a4a <parser_loop+0x10f2>
    2a14:	b8 b8       	out	0x08, r11	; 8
    2a16:	4c 99       	sbic	0x09, 4	; 9
    2a18:	fe cf       	rjmp	.-4      	; 0x2a16 <parser_loop+0x10be>
    2a1a:	5d 9a       	sbi	0x0b, 5	; 11
    2a1c:	4c 9b       	sbis	0x09, 4	; 9
    2a1e:	fe cf       	rjmp	.-4      	; 0x2a1c <parser_loop+0x10c4>
    2a20:	5d 98       	cbi	0x0b, 5	; 11
    2a22:	78 b8       	out	0x08, r7	; 8
    2a24:	12 c0       	rjmp	.+36     	; 0x2a4a <parser_loop+0x10f2>
    2a26:	b8 b8       	out	0x08, r11	; 8
    2a28:	4c 99       	sbic	0x09, 4	; 9
    2a2a:	fe cf       	rjmp	.-4      	; 0x2a28 <parser_loop+0x10d0>
    2a2c:	5d 9a       	sbi	0x0b, 5	; 11
    2a2e:	4c 9b       	sbis	0x09, 4	; 9
    2a30:	fe cf       	rjmp	.-4      	; 0x2a2e <parser_loop+0x10d6>
    2a32:	5d 98       	cbi	0x0b, 5	; 11
    2a34:	68 b8       	out	0x08, r6	; 8
    2a36:	09 c0       	rjmp	.+18     	; 0x2a4a <parser_loop+0x10f2>
    2a38:	b8 b8       	out	0x08, r11	; 8
    2a3a:	4c 99       	sbic	0x09, 4	; 9
    2a3c:	fe cf       	rjmp	.-4      	; 0x2a3a <parser_loop+0x10e2>
    2a3e:	5d 9a       	sbi	0x0b, 5	; 11
    2a40:	4c 9b       	sbis	0x09, 4	; 9
    2a42:	fe cf       	rjmp	.-4      	; 0x2a40 <parser_loop+0x10e8>
    2a44:	5d 98       	cbi	0x0b, 5	; 11
    2a46:	88 e1       	ldi	r24, 0x18	; 24
    2a48:	88 b9       	out	0x08, r24	; 8
    2a4a:	4c 99       	sbic	0x09, 4	; 9
    2a4c:	fe cf       	rjmp	.-4      	; 0x2a4a <parser_loop+0x10f2>
    2a4e:	5d 9a       	sbi	0x0b, 5	; 11
    2a50:	4c 9b       	sbis	0x09, 4	; 9
    2a52:	fe cf       	rjmp	.-4      	; 0x2a50 <parser_loop+0x10f8>
    2a54:	5d 98       	cbi	0x0b, 5	; 11
    2a56:	d7 c9       	rjmp	.-3154   	; 0x1e06 <parser_loop+0x4ae>
    2a58:	0e 94 3e 05 	call	0xa7c	; 0xa7c <ignorespace>
    2a5c:	10 92 bf 0d 	sts	0x0DBF, r1
    2a60:	e0 91 8e 0d 	lds	r30, 0x0D8E
    2a64:	f0 91 8f 0d 	lds	r31, 0x0D8F
    2a68:	10 81       	ld	r17, Z
    2a6a:	12 32       	cpi	r17, 0x22	; 34
    2a6c:	19 f0       	breq	.+6      	; 0x2a74 <parser_loop+0x111c>
    2a6e:	17 32       	cpi	r17, 0x27	; 39
    2a70:	09 f0       	breq	.+2      	; 0x2a74 <parser_loop+0x111c>
    2a72:	2f ca       	rjmp	.-2978   	; 0x1ed2 <parser_loop+0x57a>
    2a74:	31 96       	adiw	r30, 0x01	; 1
    2a76:	f0 93 8f 0d 	sts	0x0D8F, r31
    2a7a:	e0 93 8e 0d 	sts	0x0D8E, r30
    2a7e:	6a c0       	rjmp	.+212    	; 0x2b54 <parser_loop+0x11fc>
    2a80:	89 35       	cpi	r24, 0x59	; 89
    2a82:	71 f1       	breq	.+92     	; 0x2ae0 <parser_loop+0x1188>
    2a84:	8a 35       	cpi	r24, 0x5A	; 90
    2a86:	a8 f4       	brcc	.+42     	; 0x2ab2 <parser_loop+0x115a>
    2a88:	85 34       	cpi	r24, 0x45	; 69
    2a8a:	09 f4       	brne	.+2      	; 0x2a8e <parser_loop+0x1136>
    2a8c:	39 c0       	rjmp	.+114    	; 0x2b00 <parser_loop+0x11a8>
    2a8e:	86 34       	cpi	r24, 0x46	; 70
    2a90:	40 f4       	brcc	.+16     	; 0x2aa2 <parser_loop+0x114a>
    2a92:	83 34       	cpi	r24, 0x43	; 67
    2a94:	91 f1       	breq	.+100    	; 0x2afa <parser_loop+0x11a2>
    2a96:	84 34       	cpi	r24, 0x44	; 68
    2a98:	30 f5       	brcc	.+76     	; 0x2ae6 <parser_loop+0x118e>
    2a9a:	81 34       	cpi	r24, 0x41	; 65
    2a9c:	09 f0       	breq	.+2      	; 0x2aa0 <parser_loop+0x1148>
    2a9e:	41 c0       	rjmp	.+130    	; 0x2b22 <parser_loop+0x11ca>
    2aa0:	1f c0       	rjmp	.+62     	; 0x2ae0 <parser_loop+0x1188>
    2aa2:	8e 34       	cpi	r24, 0x4E	; 78
    2aa4:	01 f1       	breq	.+64     	; 0x2ae6 <parser_loop+0x118e>
    2aa6:	88 35       	cpi	r24, 0x58	; 88
    2aa8:	41 f1       	breq	.+80     	; 0x2afa <parser_loop+0x11a2>
    2aaa:	8d 34       	cpi	r24, 0x4D	; 77
    2aac:	09 f0       	breq	.+2      	; 0x2ab0 <parser_loop+0x1158>
    2aae:	39 c0       	rjmp	.+114    	; 0x2b22 <parser_loop+0x11ca>
    2ab0:	27 c0       	rjmp	.+78     	; 0x2b00 <parser_loop+0x11a8>
    2ab2:	85 36       	cpi	r24, 0x65	; 101
    2ab4:	29 f1       	breq	.+74     	; 0x2b00 <parser_loop+0x11a8>
    2ab6:	86 36       	cpi	r24, 0x66	; 102
    2ab8:	40 f4       	brcc	.+16     	; 0x2aca <parser_loop+0x1172>
    2aba:	83 36       	cpi	r24, 0x63	; 99
    2abc:	f1 f0       	breq	.+60     	; 0x2afa <parser_loop+0x11a2>
    2abe:	84 36       	cpi	r24, 0x64	; 100
    2ac0:	90 f4       	brcc	.+36     	; 0x2ae6 <parser_loop+0x118e>
    2ac2:	81 36       	cpi	r24, 0x61	; 97
    2ac4:	09 f0       	breq	.+2      	; 0x2ac8 <parser_loop+0x1170>
    2ac6:	2d c0       	rjmp	.+90     	; 0x2b22 <parser_loop+0x11ca>
    2ac8:	0b c0       	rjmp	.+22     	; 0x2ae0 <parser_loop+0x1188>
    2aca:	8e 36       	cpi	r24, 0x6E	; 110
    2acc:	61 f0       	breq	.+24     	; 0x2ae6 <parser_loop+0x118e>
    2ace:	8f 36       	cpi	r24, 0x6F	; 111
    2ad0:	18 f4       	brcc	.+6      	; 0x2ad8 <parser_loop+0x1180>
    2ad2:	8d 36       	cpi	r24, 0x6D	; 109
    2ad4:	31 f5       	brne	.+76     	; 0x2b22 <parser_loop+0x11ca>
    2ad6:	14 c0       	rjmp	.+40     	; 0x2b00 <parser_loop+0x11a8>
    2ad8:	88 37       	cpi	r24, 0x78	; 120
    2ada:	79 f0       	breq	.+30     	; 0x2afa <parser_loop+0x11a2>
    2adc:	89 37       	cpi	r24, 0x79	; 121
    2ade:	09 f5       	brne	.+66     	; 0x2b22 <parser_loop+0x11ca>
    2ae0:	e9 ec       	ldi	r30, 0xC9	; 201
    2ae2:	e8 b9       	out	0x08, r30	; 8
    2ae4:	01 c0       	rjmp	.+2      	; 0x2ae8 <parser_loop+0x1190>
    2ae6:	48 b8       	out	0x08, r4	; 8
    2ae8:	4c 99       	sbic	0x09, 4	; 9
    2aea:	fe cf       	rjmp	.-4      	; 0x2ae8 <parser_loop+0x1190>
    2aec:	5d 9a       	sbi	0x0b, 5	; 11
    2aee:	4c 9b       	sbis	0x09, 4	; 9
    2af0:	fe cf       	rjmp	.-4      	; 0x2aee <parser_loop+0x1196>
    2af2:	5d 98       	cbi	0x0b, 5	; 11
    2af4:	0e 94 82 04 	call	0x904	; 0x904 <parse_channel>
    2af8:	17 c0       	rjmp	.+46     	; 0x2b28 <parser_loop+0x11d0>
    2afa:	fb ec       	ldi	r31, 0xCB	; 203
    2afc:	f8 b9       	out	0x08, r31	; 8
    2afe:	f4 cf       	rjmp	.-24     	; 0x2ae8 <parser_loop+0x1190>
    2b00:	2d ec       	ldi	r18, 0xCD	; 205
    2b02:	28 b9       	out	0x08, r18	; 8
    2b04:	4c 99       	sbic	0x09, 4	; 9
    2b06:	fe cf       	rjmp	.-4      	; 0x2b04 <parser_loop+0x11ac>
    2b08:	5d 9a       	sbi	0x0b, 5	; 11
    2b0a:	4c 9b       	sbis	0x09, 4	; 9
    2b0c:	fe cf       	rjmp	.-4      	; 0x2b0a <parser_loop+0x11b2>
    2b0e:	5d 98       	cbi	0x0b, 5	; 11
    2b10:	0e 94 82 04 	call	0x904	; 0x904 <parse_channel>
    2b14:	80 91 bf 0d 	lds	r24, 0x0DBF
    2b18:	88 23       	and	r24, r24
    2b1a:	31 f4       	brne	.+12     	; 0x2b28 <parser_loop+0x11d0>
    2b1c:	0e 94 9e 04 	call	0x93c	; 0x93c <parse_notes>
    2b20:	03 c0       	rjmp	.+6      	; 0x2b28 <parser_loop+0x11d0>
    2b22:	84 e0       	ldi	r24, 0x04	; 4
    2b24:	80 93 bf 0d 	sts	0x0DBF, r24
    2b28:	80 91 bf 0d 	lds	r24, 0x0DBF
    2b2c:	88 23       	and	r24, r24
    2b2e:	49 f0       	breq	.+18     	; 0x2b42 <parser_loop+0x11ea>
    2b30:	88 ec       	ldi	r24, 0xC8	; 200
    2b32:	88 b9       	out	0x08, r24	; 8
    2b34:	4c 99       	sbic	0x09, 4	; 9
    2b36:	fe cf       	rjmp	.-4      	; 0x2b34 <parser_loop+0x11dc>
    2b38:	5d 9a       	sbi	0x0b, 5	; 11
    2b3a:	4c 9b       	sbis	0x09, 4	; 9
    2b3c:	fe cf       	rjmp	.-4      	; 0x2b3a <parser_loop+0x11e2>
    2b3e:	5d 98       	cbi	0x0b, 5	; 11
    2b40:	75 c8       	rjmp	.-3862   	; 0x1c2c <parser_loop+0x2d4>
    2b42:	80 91 8e 0d 	lds	r24, 0x0D8E
    2b46:	90 91 8f 0d 	lds	r25, 0x0D8F
    2b4a:	01 96       	adiw	r24, 0x01	; 1
    2b4c:	90 93 8f 0d 	sts	0x0D8F, r25
    2b50:	80 93 8e 0d 	sts	0x0D8E, r24
    2b54:	e0 91 8e 0d 	lds	r30, 0x0D8E
    2b58:	f0 91 8f 0d 	lds	r31, 0x0D8F
    2b5c:	80 81       	ld	r24, Z
    2b5e:	81 17       	cp	r24, r17
    2b60:	09 f0       	breq	.+2      	; 0x2b64 <parser_loop+0x120c>
    2b62:	8e cf       	rjmp	.-228    	; 0x2a80 <parser_loop+0x1128>
    2b64:	4b c9       	rjmp	.-3434   	; 0x1dfc <parser_loop+0x4a4>
    2b66:	0e 94 17 06 	call	0xc2e	; 0xc2e <linenum_test>
    2b6a:	90 93 8c 0d 	sts	0x0D8C, r25
    2b6e:	80 93 8b 0d 	sts	0x0D8B, r24
    2b72:	e0 91 8e 0d 	lds	r30, 0x0D8E
    2b76:	f0 91 8f 0d 	lds	r31, 0x0D8F
    2b7a:	80 81       	ld	r24, Z
    2b7c:	8a 30       	cpi	r24, 0x0A	; 10
    2b7e:	21 f0       	breq	.+8      	; 0x2b88 <parser_loop+0x1230>
    2b80:	a0 92 bf 0d 	sts	0x0DBF, r10
    2b84:	0c 94 16 0e 	jmp	0x1c2c	; 0x1c2c <parser_loop+0x2d4>
    2b88:	0e 94 24 05 	call	0xa48	; 0xa48 <find_line>
    2b8c:	90 93 a4 0d 	sts	0x0DA4, r25
    2b90:	80 93 a3 0d 	sts	0x0DA3, r24
    2b94:	06 c0       	rjmp	.+12     	; 0x2ba2 <parser_loop+0x124a>
    2b96:	80 91 c4 0d 	lds	r24, 0x0DC4
    2b9a:	90 91 c5 0d 	lds	r25, 0x0DC5
    2b9e:	0e 94 c3 09 	call	0x1386	; 0x1386 <printline>
    2ba2:	20 91 a3 0d 	lds	r18, 0x0DA3
    2ba6:	30 91 a4 0d 	lds	r19, 0x0DA4
    2baa:	80 91 a0 0d 	lds	r24, 0x0DA0
    2bae:	90 91 a1 0d 	lds	r25, 0x0DA1
    2bb2:	28 17       	cp	r18, r24
    2bb4:	39 07       	cpc	r19, r25
    2bb6:	79 f7       	brne	.-34     	; 0x2b96 <parser_loop+0x123e>
    2bb8:	0c 94 08 0d 	jmp	0x1a10	; 0x1a10 <parser_loop+0xb8>
    2bbc:	80 91 ad 0d 	lds	r24, 0x0DAD
    2bc0:	90 91 ae 0d 	lds	r25, 0x0DAE
    2bc4:	20 91 a0 0d 	lds	r18, 0x0DA0
    2bc8:	30 91 a1 0d 	lds	r19, 0x0DA1
    2bcc:	60 91 c4 0d 	lds	r22, 0x0DC4
    2bd0:	70 91 c5 0d 	lds	r23, 0x0DC5
    2bd4:	82 1b       	sub	r24, r18
    2bd6:	93 0b       	sbc	r25, r19
    2bd8:	0e 94 7e 09 	call	0x12fc	; 0x12fc <printnum>
    2bdc:	60 91 c4 0d 	lds	r22, 0x0DC4
    2be0:	70 91 c5 0d 	lds	r23, 0x0DC5
    2be4:	85 e5       	ldi	r24, 0x55	; 85
    2be6:	93 e0       	ldi	r25, 0x03	; 3
    2be8:	0e 94 44 08 	call	0x1088	; 0x1088 <printmsg>
    2bec:	60 91 c4 0d 	lds	r22, 0x0DC4
    2bf0:	70 91 c5 0d 	lds	r23, 0x0DC5
    2bf4:	80 e0       	ldi	r24, 0x00	; 0
    2bf6:	98 e0       	ldi	r25, 0x08	; 8
    2bf8:	0e 94 7e 09 	call	0x12fc	; 0x12fc <printnum>
    2bfc:	60 91 c4 0d 	lds	r22, 0x0DC4
    2c00:	70 91 c5 0d 	lds	r23, 0x0DC5
    2c04:	80 e6       	ldi	r24, 0x60	; 96
    2c06:	93 e0       	ldi	r25, 0x03	; 3
    2c08:	0e 94 44 08 	call	0x1088	; 0x1088 <printmsg>
    2c0c:	fc c8       	rjmp	.-3592   	; 0x1e06 <parser_loop+0x4ae>
    2c0e:	80 91 b2 00 	lds	r24, 0x00B2
    2c12:	90 e0       	ldi	r25, 0x00	; 0
    2c14:	0c c0       	rjmp	.+24     	; 0x2c2e <parser_loop+0x12d6>
    2c16:	10 92 bf 0d 	sts	0x0DBF, r1
    2c1a:	0e 94 58 0c 	call	0x18b0	; 0x18b0 <parse_step1>
    2c1e:	9c 01       	movw	r18, r24
    2c20:	80 91 bf 0d 	lds	r24, 0x0DBF
    2c24:	88 23       	and	r24, r24
    2c26:	11 f0       	breq	.+4      	; 0x2c2c <parser_loop+0x12d4>
    2c28:	0c 94 16 0e 	jmp	0x1c2c	; 0x1c2c <parser_loop+0x2d4>
    2c2c:	c9 01       	movw	r24, r18
    2c2e:	0e 94 75 17 	call	0x2eea	; 0x2eea <srand>
    2c32:	e9 c8       	rjmp	.-3630   	; 0x1e06 <parser_loop+0x4ae>

00002c34 <main>:
    2c34:	88 e0       	ldi	r24, 0x08	; 8
    2c36:	91 e0       	ldi	r25, 0x01	; 1
    2c38:	90 93 c3 0d 	sts	0x0DC3, r25
    2c3c:	80 93 c2 0d 	sts	0x0DC2, r24
    2c40:	90 93 c5 0d 	sts	0x0DC5, r25
    2c44:	80 93 c4 0d 	sts	0x0DC4, r24
    2c48:	10 92 7c 00 	sts	0x007C, r1
    2c4c:	87 e8       	ldi	r24, 0x87	; 135
    2c4e:	80 93 7a 00 	sts	0x007A, r24
    2c52:	80 91 7a 00 	lds	r24, 0x007A
    2c56:	80 64       	ori	r24, 0x40	; 64
    2c58:	80 93 7a 00 	sts	0x007A, r24
    2c5c:	80 91 7a 00 	lds	r24, 0x007A
    2c60:	86 fd       	sbrc	r24, 6
    2c62:	fc cf       	rjmp	.-8      	; 0x2c5c <main+0x28>
    2c64:	11 b8       	out	0x01, r1	; 1
    2c66:	8f ef       	ldi	r24, 0xFF	; 255
    2c68:	82 b9       	out	0x02, r24	; 2
    2c6a:	20 9a       	sbi	0x04, 0	; 4
    2c6c:	28 9a       	sbi	0x05, 0	; 5
    2c6e:	22 98       	cbi	0x04, 2	; 4
    2c70:	2a 9a       	sbi	0x05, 2	; 5
    2c72:	ea 9a       	sbi	0x1d, 2	; 29
    2c74:	53 98       	cbi	0x0a, 3	; 10
    2c76:	52 98       	cbi	0x0a, 2	; 10
    2c78:	5b 9a       	sbi	0x0b, 3	; 11
    2c7a:	5a 9a       	sbi	0x0b, 2	; 11
    2c7c:	92 e0       	ldi	r25, 0x02	; 2
    2c7e:	94 bd       	out	0x24, r25	; 36
    2c80:	15 bc       	out	0x25, r1	; 37
    2c82:	84 e6       	ldi	r24, 0x64	; 100
    2c84:	87 bd       	out	0x27, r24	; 39
    2c86:	90 93 6e 00 	sts	0x006E, r25
    2c8a:	10 92 a5 0d 	sts	0x0DA5, r1
    2c8e:	8b e0       	ldi	r24, 0x0B	; 11
    2c90:	80 93 8d 0d 	sts	0x0D8D, r24
    2c94:	90 93 69 00 	sts	0x0069, r25
    2c98:	10 92 a8 0d 	sts	0x0DA8, r1
    2c9c:	e8 9a       	sbi	0x1d, 0	; 29
    2c9e:	78 94       	sei
    2ca0:	8f ef       	ldi	r24, 0xFF	; 255
    2ca2:	87 b9       	out	0x07, r24	; 7
    2ca4:	56 98       	cbi	0x0a, 6	; 10
    2ca6:	57 9a       	sbi	0x0a, 7	; 10
    2ca8:	54 98       	cbi	0x0a, 4	; 10
    2caa:	55 9a       	sbi	0x0a, 5	; 10
    2cac:	10 92 c5 00 	sts	0x00C5, r1
    2cb0:	85 e1       	ldi	r24, 0x15	; 21
    2cb2:	80 93 c4 00 	sts	0x00C4, r24
    2cb6:	86 e0       	ldi	r24, 0x06	; 6
    2cb8:	80 93 c2 00 	sts	0x00C2, r24
    2cbc:	88 e1       	ldi	r24, 0x18	; 24
    2cbe:	80 93 c1 00 	sts	0x00C1, r24
    2cc2:	0e 94 8c 0a 	call	0x1518	; 0x1518 <uart_ansi_rst_clr>
    2cc6:	0e 94 de 04 	call	0x9bc	; 0x9bc <do_beep>
    2cca:	8c e4       	ldi	r24, 0x4C	; 76
    2ccc:	0e 94 56 0a 	call	0x14ac	; 0x14ac <text_color>
    2cd0:	80 e0       	ldi	r24, 0x00	; 0
    2cd2:	0e 94 42 0a 	call	0x1484	; 0x1484 <paper_color>
    2cd6:	60 91 c4 0d 	lds	r22, 0x0DC4
    2cda:	70 91 c5 0d 	lds	r23, 0x0DC5
    2cde:	8c e3       	ldi	r24, 0x3C	; 60
    2ce0:	93 e0       	ldi	r25, 0x03	; 3
    2ce2:	0e 94 44 08 	call	0x1088	; 0x1088 <printmsg>
    2ce6:	10 92 b0 00 	sts	0x00B0, r1
    2cea:	87 e0       	ldi	r24, 0x07	; 7
    2cec:	80 93 b1 00 	sts	0x00B1, r24
    2cf0:	10 92 70 00 	sts	0x0070, r1
    2cf4:	0e 94 ac 0c 	call	0x1958	; 0x1958 <parser_loop>
    2cf8:	fd cf       	rjmp	.-6      	; 0x2cf4 <main+0xc0>

00002cfa <getchar_rom>:
    2cfa:	80 91 9b 0d 	lds	r24, 0x0D9B
    2cfe:	90 91 9c 0d 	lds	r25, 0x0D9C
    2d02:	01 96       	adiw	r24, 0x01	; 1
    2d04:	90 93 9c 0d 	sts	0x0D9C, r25
    2d08:	80 93 9b 0d 	sts	0x0D9B, r24
    2d0c:	01 97       	sbiw	r24, 0x01	; 1
    2d0e:	0e 94 f4 19 	call	0x33e8	; 0x33e8 <__eerd_byte_m644p>
    2d12:	90 e0       	ldi	r25, 0x00	; 0
    2d14:	08 95       	ret

00002d16 <putchar_rom>:
    2d16:	68 2f       	mov	r22, r24
    2d18:	80 91 9b 0d 	lds	r24, 0x0D9B
    2d1c:	90 91 9c 0d 	lds	r25, 0x0D9C
    2d20:	01 96       	adiw	r24, 0x01	; 1
    2d22:	90 93 9c 0d 	sts	0x0D9C, r25
    2d26:	80 93 9b 0d 	sts	0x0D9B, r24
    2d2a:	01 97       	sbiw	r24, 0x01	; 1
    2d2c:	0e 94 fc 19 	call	0x33f8	; 0x33f8 <__eeupd_byte_m644p>
    2d30:	80 e0       	ldi	r24, 0x00	; 0
    2d32:	90 e0       	ldi	r25, 0x00	; 0
    2d34:	08 95       	ret

00002d36 <uart_ansi_move_cursor>:
    2d36:	cf 92       	push	r12
    2d38:	df 92       	push	r13
    2d3a:	ef 92       	push	r14
    2d3c:	ff 92       	push	r15
    2d3e:	0f 93       	push	r16
    2d40:	1f 93       	push	r17
    2d42:	d8 2e       	mov	r13, r24
    2d44:	c6 2e       	mov	r12, r22
    2d46:	06 e1       	ldi	r16, 0x16	; 22
    2d48:	11 e0       	ldi	r17, 0x01	; 1
    2d4a:	8b e1       	ldi	r24, 0x1B	; 27
    2d4c:	90 e0       	ldi	r25, 0x00	; 0
    2d4e:	b8 01       	movw	r22, r16
    2d50:	0e 94 d6 17 	call	0x2fac	; 0x2fac <fputc>
    2d54:	8b e5       	ldi	r24, 0x5B	; 91
    2d56:	90 e0       	ldi	r25, 0x00	; 0
    2d58:	b8 01       	movw	r22, r16
    2d5a:	0e 94 d6 17 	call	0x2fac	; 0x2fac <fputc>
    2d5e:	00 d0       	rcall	.+0      	; 0x2d60 <uart_ansi_move_cursor+0x2a>
    2d60:	00 d0       	rcall	.+0      	; 0x2d62 <uart_ansi_move_cursor+0x2c>
    2d62:	00 d0       	rcall	.+0      	; 0x2d64 <uart_ansi_move_cursor+0x2e>
    2d64:	ed b7       	in	r30, 0x3d	; 61
    2d66:	fe b7       	in	r31, 0x3e	; 62
    2d68:	31 96       	adiw	r30, 0x01	; 1
    2d6a:	ad b7       	in	r26, 0x3d	; 61
    2d6c:	be b7       	in	r27, 0x3e	; 62
    2d6e:	12 96       	adiw	r26, 0x02	; 2
    2d70:	1c 93       	st	X, r17
    2d72:	0e 93       	st	-X, r16
    2d74:	11 97       	sbiw	r26, 0x01	; 1
    2d76:	a5 e0       	ldi	r26, 0x05	; 5
    2d78:	ea 2e       	mov	r14, r26
    2d7a:	a1 e0       	ldi	r26, 0x01	; 1
    2d7c:	fa 2e       	mov	r15, r26
    2d7e:	f3 82       	std	Z+3, r15	; 0x03
    2d80:	e2 82       	std	Z+2, r14	; 0x02
    2d82:	d4 82       	std	Z+4, r13	; 0x04
    2d84:	15 82       	std	Z+5, r1	; 0x05
    2d86:	0e 94 c2 17 	call	0x2f84	; 0x2f84 <fprintf>
    2d8a:	8d b7       	in	r24, 0x3d	; 61
    2d8c:	9e b7       	in	r25, 0x3e	; 62
    2d8e:	06 96       	adiw	r24, 0x06	; 6
    2d90:	0f b6       	in	r0, 0x3f	; 63
    2d92:	f8 94       	cli
    2d94:	9e bf       	out	0x3e, r25	; 62
    2d96:	0f be       	out	0x3f, r0	; 63
    2d98:	8d bf       	out	0x3d, r24	; 61
    2d9a:	8b e3       	ldi	r24, 0x3B	; 59
    2d9c:	90 e0       	ldi	r25, 0x00	; 0
    2d9e:	b8 01       	movw	r22, r16
    2da0:	0e 94 d6 17 	call	0x2fac	; 0x2fac <fputc>
    2da4:	00 d0       	rcall	.+0      	; 0x2da6 <uart_ansi_move_cursor+0x70>
    2da6:	00 d0       	rcall	.+0      	; 0x2da8 <uart_ansi_move_cursor+0x72>
    2da8:	00 d0       	rcall	.+0      	; 0x2daa <uart_ansi_move_cursor+0x74>
    2daa:	ed b7       	in	r30, 0x3d	; 61
    2dac:	fe b7       	in	r31, 0x3e	; 62
    2dae:	31 96       	adiw	r30, 0x01	; 1
    2db0:	ad b7       	in	r26, 0x3d	; 61
    2db2:	be b7       	in	r27, 0x3e	; 62
    2db4:	12 96       	adiw	r26, 0x02	; 2
    2db6:	1c 93       	st	X, r17
    2db8:	0e 93       	st	-X, r16
    2dba:	11 97       	sbiw	r26, 0x01	; 1
    2dbc:	f3 82       	std	Z+3, r15	; 0x03
    2dbe:	e2 82       	std	Z+2, r14	; 0x02
    2dc0:	c4 82       	std	Z+4, r12	; 0x04
    2dc2:	15 82       	std	Z+5, r1	; 0x05
    2dc4:	0e 94 c2 17 	call	0x2f84	; 0x2f84 <fprintf>
    2dc8:	8d b7       	in	r24, 0x3d	; 61
    2dca:	9e b7       	in	r25, 0x3e	; 62
    2dcc:	06 96       	adiw	r24, 0x06	; 6
    2dce:	0f b6       	in	r0, 0x3f	; 63
    2dd0:	f8 94       	cli
    2dd2:	9e bf       	out	0x3e, r25	; 62
    2dd4:	0f be       	out	0x3f, r0	; 63
    2dd6:	8d bf       	out	0x3d, r24	; 61
    2dd8:	88 e4       	ldi	r24, 0x48	; 72
    2dda:	90 e0       	ldi	r25, 0x00	; 0
    2ddc:	b8 01       	movw	r22, r16
    2dde:	0e 94 d6 17 	call	0x2fac	; 0x2fac <fputc>
    2de2:	1f 91       	pop	r17
    2de4:	0f 91       	pop	r16
    2de6:	ff 90       	pop	r15
    2de8:	ef 90       	pop	r14
    2dea:	df 90       	pop	r13
    2dec:	cf 90       	pop	r12
    2dee:	08 95       	ret

00002df0 <__udivmodhi4>:
    2df0:	aa 1b       	sub	r26, r26
    2df2:	bb 1b       	sub	r27, r27
    2df4:	51 e1       	ldi	r21, 0x11	; 17
    2df6:	07 c0       	rjmp	.+14     	; 0x2e06 <__udivmodhi4_ep>

00002df8 <__udivmodhi4_loop>:
    2df8:	aa 1f       	adc	r26, r26
    2dfa:	bb 1f       	adc	r27, r27
    2dfc:	a6 17       	cp	r26, r22
    2dfe:	b7 07       	cpc	r27, r23
    2e00:	10 f0       	brcs	.+4      	; 0x2e06 <__udivmodhi4_ep>
    2e02:	a6 1b       	sub	r26, r22
    2e04:	b7 0b       	sbc	r27, r23

00002e06 <__udivmodhi4_ep>:
    2e06:	88 1f       	adc	r24, r24
    2e08:	99 1f       	adc	r25, r25
    2e0a:	5a 95       	dec	r21
    2e0c:	a9 f7       	brne	.-22     	; 0x2df8 <__udivmodhi4_loop>
    2e0e:	80 95       	com	r24
    2e10:	90 95       	com	r25
    2e12:	bc 01       	movw	r22, r24
    2e14:	cd 01       	movw	r24, r26
    2e16:	08 95       	ret

00002e18 <__divmodhi4>:
    2e18:	97 fb       	bst	r25, 7
    2e1a:	09 2e       	mov	r0, r25
    2e1c:	07 26       	eor	r0, r23
    2e1e:	0a d0       	rcall	.+20     	; 0x2e34 <__divmodhi4_neg1>
    2e20:	77 fd       	sbrc	r23, 7
    2e22:	04 d0       	rcall	.+8      	; 0x2e2c <__divmodhi4_neg2>
    2e24:	e5 df       	rcall	.-54     	; 0x2df0 <__udivmodhi4>
    2e26:	06 d0       	rcall	.+12     	; 0x2e34 <__divmodhi4_neg1>
    2e28:	00 20       	and	r0, r0
    2e2a:	1a f4       	brpl	.+6      	; 0x2e32 <__divmodhi4_exit>

00002e2c <__divmodhi4_neg2>:
    2e2c:	70 95       	com	r23
    2e2e:	61 95       	neg	r22
    2e30:	7f 4f       	sbci	r23, 0xFF	; 255

00002e32 <__divmodhi4_exit>:
    2e32:	08 95       	ret

00002e34 <__divmodhi4_neg1>:
    2e34:	f6 f7       	brtc	.-4      	; 0x2e32 <__divmodhi4_exit>
    2e36:	90 95       	com	r25
    2e38:	81 95       	neg	r24
    2e3a:	9f 4f       	sbci	r25, 0xFF	; 255
    2e3c:	08 95       	ret

00002e3e <do_rand>:
    2e3e:	a0 e0       	ldi	r26, 0x00	; 0
    2e40:	b0 e0       	ldi	r27, 0x00	; 0
    2e42:	e5 e2       	ldi	r30, 0x25	; 37
    2e44:	f7 e1       	ldi	r31, 0x17	; 23
    2e46:	0c 94 c4 1a 	jmp	0x3588	; 0x3588 <__prologue_saves__+0x10>
    2e4a:	ec 01       	movw	r28, r24
    2e4c:	a8 80       	ld	r10, Y
    2e4e:	b9 80       	ldd	r11, Y+1	; 0x01
    2e50:	ca 80       	ldd	r12, Y+2	; 0x02
    2e52:	db 80       	ldd	r13, Y+3	; 0x03
    2e54:	a1 14       	cp	r10, r1
    2e56:	b1 04       	cpc	r11, r1
    2e58:	c1 04       	cpc	r12, r1
    2e5a:	d1 04       	cpc	r13, r1
    2e5c:	41 f4       	brne	.+16     	; 0x2e6e <do_rand+0x30>
    2e5e:	84 e2       	ldi	r24, 0x24	; 36
    2e60:	a8 2e       	mov	r10, r24
    2e62:	89 ed       	ldi	r24, 0xD9	; 217
    2e64:	b8 2e       	mov	r11, r24
    2e66:	8b e5       	ldi	r24, 0x5B	; 91
    2e68:	c8 2e       	mov	r12, r24
    2e6a:	87 e0       	ldi	r24, 0x07	; 7
    2e6c:	d8 2e       	mov	r13, r24
    2e6e:	c6 01       	movw	r24, r12
    2e70:	b5 01       	movw	r22, r10
    2e72:	2d e1       	ldi	r18, 0x1D	; 29
    2e74:	33 ef       	ldi	r19, 0xF3	; 243
    2e76:	41 e0       	ldi	r20, 0x01	; 1
    2e78:	50 e0       	ldi	r21, 0x00	; 0
    2e7a:	0e 94 a1 1a 	call	0x3542	; 0x3542 <__divmodsi4>
    2e7e:	27 ea       	ldi	r18, 0xA7	; 167
    2e80:	31 e4       	ldi	r19, 0x41	; 65
    2e82:	40 e0       	ldi	r20, 0x00	; 0
    2e84:	50 e0       	ldi	r21, 0x00	; 0
    2e86:	0e 94 82 1a 	call	0x3504	; 0x3504 <__mulsi3>
    2e8a:	7b 01       	movw	r14, r22
    2e8c:	8c 01       	movw	r16, r24
    2e8e:	c6 01       	movw	r24, r12
    2e90:	b5 01       	movw	r22, r10
    2e92:	2d e1       	ldi	r18, 0x1D	; 29
    2e94:	33 ef       	ldi	r19, 0xF3	; 243
    2e96:	41 e0       	ldi	r20, 0x01	; 1
    2e98:	50 e0       	ldi	r21, 0x00	; 0
    2e9a:	0e 94 a1 1a 	call	0x3542	; 0x3542 <__divmodsi4>
    2e9e:	ca 01       	movw	r24, r20
    2ea0:	b9 01       	movw	r22, r18
    2ea2:	2c ee       	ldi	r18, 0xEC	; 236
    2ea4:	34 ef       	ldi	r19, 0xF4	; 244
    2ea6:	4f ef       	ldi	r20, 0xFF	; 255
    2ea8:	5f ef       	ldi	r21, 0xFF	; 255
    2eaa:	0e 94 82 1a 	call	0x3504	; 0x3504 <__mulsi3>
    2eae:	6e 0d       	add	r22, r14
    2eb0:	7f 1d       	adc	r23, r15
    2eb2:	80 1f       	adc	r24, r16
    2eb4:	91 1f       	adc	r25, r17
    2eb6:	97 ff       	sbrs	r25, 7
    2eb8:	04 c0       	rjmp	.+8      	; 0x2ec2 <do_rand+0x84>
    2eba:	61 50       	subi	r22, 0x01	; 1
    2ebc:	70 40       	sbci	r23, 0x00	; 0
    2ebe:	80 40       	sbci	r24, 0x00	; 0
    2ec0:	90 48       	sbci	r25, 0x80	; 128
    2ec2:	68 83       	st	Y, r22
    2ec4:	79 83       	std	Y+1, r23	; 0x01
    2ec6:	8a 83       	std	Y+2, r24	; 0x02
    2ec8:	9b 83       	std	Y+3, r25	; 0x03
    2eca:	9b 01       	movw	r18, r22
    2ecc:	3f 77       	andi	r19, 0x7F	; 127
    2ece:	c9 01       	movw	r24, r18
    2ed0:	cd b7       	in	r28, 0x3d	; 61
    2ed2:	de b7       	in	r29, 0x3e	; 62
    2ed4:	ea e0       	ldi	r30, 0x0A	; 10
    2ed6:	0c 94 e0 1a 	jmp	0x35c0	; 0x35c0 <__epilogue_restores__+0x10>

00002eda <rand_r>:
    2eda:	0e 94 1f 17 	call	0x2e3e	; 0x2e3e <do_rand>
    2ede:	08 95       	ret

00002ee0 <rand>:
    2ee0:	82 e3       	ldi	r24, 0x32	; 50
    2ee2:	91 e0       	ldi	r25, 0x01	; 1
    2ee4:	0e 94 1f 17 	call	0x2e3e	; 0x2e3e <do_rand>
    2ee8:	08 95       	ret

00002eea <srand>:
    2eea:	a0 e0       	ldi	r26, 0x00	; 0
    2eec:	b0 e0       	ldi	r27, 0x00	; 0
    2eee:	80 93 32 01 	sts	0x0132, r24
    2ef2:	90 93 33 01 	sts	0x0133, r25
    2ef6:	a0 93 34 01 	sts	0x0134, r26
    2efa:	b0 93 35 01 	sts	0x0135, r27
    2efe:	08 95       	ret

00002f00 <fgetc>:
    2f00:	cf 93       	push	r28
    2f02:	df 93       	push	r29
    2f04:	ec 01       	movw	r28, r24
    2f06:	4b 81       	ldd	r20, Y+3	; 0x03
    2f08:	40 ff       	sbrs	r20, 0
    2f0a:	1a c0       	rjmp	.+52     	; 0x2f40 <fgetc+0x40>
    2f0c:	46 ff       	sbrs	r20, 6
    2f0e:	0a c0       	rjmp	.+20     	; 0x2f24 <fgetc+0x24>
    2f10:	4f 7b       	andi	r20, 0xBF	; 191
    2f12:	4b 83       	std	Y+3, r20	; 0x03
    2f14:	8e 81       	ldd	r24, Y+6	; 0x06
    2f16:	9f 81       	ldd	r25, Y+7	; 0x07
    2f18:	01 96       	adiw	r24, 0x01	; 1
    2f1a:	9f 83       	std	Y+7, r25	; 0x07
    2f1c:	8e 83       	std	Y+6, r24	; 0x06
    2f1e:	8a 81       	ldd	r24, Y+2	; 0x02
    2f20:	28 2f       	mov	r18, r24
    2f22:	2b c0       	rjmp	.+86     	; 0x2f7a <fgetc+0x7a>
    2f24:	42 ff       	sbrs	r20, 2
    2f26:	13 c0       	rjmp	.+38     	; 0x2f4e <fgetc+0x4e>
    2f28:	e8 81       	ld	r30, Y
    2f2a:	f9 81       	ldd	r31, Y+1	; 0x01
    2f2c:	80 81       	ld	r24, Z
    2f2e:	28 2f       	mov	r18, r24
    2f30:	33 27       	eor	r19, r19
    2f32:	27 fd       	sbrc	r18, 7
    2f34:	30 95       	com	r19
    2f36:	21 15       	cp	r18, r1
    2f38:	31 05       	cpc	r19, r1
    2f3a:	29 f4       	brne	.+10     	; 0x2f46 <fgetc+0x46>
    2f3c:	40 62       	ori	r20, 0x20	; 32
    2f3e:	4b 83       	std	Y+3, r20	; 0x03
    2f40:	2f ef       	ldi	r18, 0xFF	; 255
    2f42:	3f ef       	ldi	r19, 0xFF	; 255
    2f44:	1b c0       	rjmp	.+54     	; 0x2f7c <fgetc+0x7c>
    2f46:	31 96       	adiw	r30, 0x01	; 1
    2f48:	f9 83       	std	Y+1, r31	; 0x01
    2f4a:	e8 83       	st	Y, r30
    2f4c:	11 c0       	rjmp	.+34     	; 0x2f70 <fgetc+0x70>
    2f4e:	ea 85       	ldd	r30, Y+10	; 0x0a
    2f50:	fb 85       	ldd	r31, Y+11	; 0x0b
    2f52:	ce 01       	movw	r24, r28
    2f54:	09 95       	icall
    2f56:	9c 01       	movw	r18, r24
    2f58:	97 ff       	sbrs	r25, 7
    2f5a:	0a c0       	rjmp	.+20     	; 0x2f70 <fgetc+0x70>
    2f5c:	9b 81       	ldd	r25, Y+3	; 0x03
    2f5e:	2f 5f       	subi	r18, 0xFF	; 255
    2f60:	3f 4f       	sbci	r19, 0xFF	; 255
    2f62:	11 f0       	breq	.+4      	; 0x2f68 <fgetc+0x68>
    2f64:	80 e2       	ldi	r24, 0x20	; 32
    2f66:	01 c0       	rjmp	.+2      	; 0x2f6a <fgetc+0x6a>
    2f68:	80 e1       	ldi	r24, 0x10	; 16
    2f6a:	89 2b       	or	r24, r25
    2f6c:	8b 83       	std	Y+3, r24	; 0x03
    2f6e:	e8 cf       	rjmp	.-48     	; 0x2f40 <fgetc+0x40>
    2f70:	8e 81       	ldd	r24, Y+6	; 0x06
    2f72:	9f 81       	ldd	r25, Y+7	; 0x07
    2f74:	01 96       	adiw	r24, 0x01	; 1
    2f76:	9f 83       	std	Y+7, r25	; 0x07
    2f78:	8e 83       	std	Y+6, r24	; 0x06
    2f7a:	30 e0       	ldi	r19, 0x00	; 0
    2f7c:	c9 01       	movw	r24, r18
    2f7e:	df 91       	pop	r29
    2f80:	cf 91       	pop	r28
    2f82:	08 95       	ret

00002f84 <fprintf>:
    2f84:	a0 e0       	ldi	r26, 0x00	; 0
    2f86:	b0 e0       	ldi	r27, 0x00	; 0
    2f88:	e8 ec       	ldi	r30, 0xC8	; 200
    2f8a:	f7 e1       	ldi	r31, 0x17	; 23
    2f8c:	0c 94 cc 1a 	jmp	0x3598	; 0x3598 <__prologue_saves__+0x20>
    2f90:	9e 01       	movw	r18, r28
    2f92:	27 5f       	subi	r18, 0xF7	; 247
    2f94:	3f 4f       	sbci	r19, 0xFF	; 255
    2f96:	8d 81       	ldd	r24, Y+5	; 0x05
    2f98:	9e 81       	ldd	r25, Y+6	; 0x06
    2f9a:	6f 81       	ldd	r22, Y+7	; 0x07
    2f9c:	78 85       	ldd	r23, Y+8	; 0x08
    2f9e:	a9 01       	movw	r20, r18
    2fa0:	0e 94 17 18 	call	0x302e	; 0x302e <vfprintf>
    2fa4:	20 96       	adiw	r28, 0x00	; 0
    2fa6:	e2 e0       	ldi	r30, 0x02	; 2
    2fa8:	0c 94 e8 1a 	jmp	0x35d0	; 0x35d0 <__epilogue_restores__+0x20>

00002fac <fputc>:
    2fac:	0f 93       	push	r16
    2fae:	1f 93       	push	r17
    2fb0:	cf 93       	push	r28
    2fb2:	df 93       	push	r29
    2fb4:	8c 01       	movw	r16, r24
    2fb6:	eb 01       	movw	r28, r22
    2fb8:	8b 81       	ldd	r24, Y+3	; 0x03
    2fba:	81 ff       	sbrs	r24, 1
    2fbc:	1b c0       	rjmp	.+54     	; 0x2ff4 <fputc+0x48>
    2fbe:	82 ff       	sbrs	r24, 2
    2fc0:	0d c0       	rjmp	.+26     	; 0x2fdc <fputc+0x30>
    2fc2:	2e 81       	ldd	r18, Y+6	; 0x06
    2fc4:	3f 81       	ldd	r19, Y+7	; 0x07
    2fc6:	8c 81       	ldd	r24, Y+4	; 0x04
    2fc8:	9d 81       	ldd	r25, Y+5	; 0x05
    2fca:	28 17       	cp	r18, r24
    2fcc:	39 07       	cpc	r19, r25
    2fce:	64 f4       	brge	.+24     	; 0x2fe8 <fputc+0x3c>
    2fd0:	e8 81       	ld	r30, Y
    2fd2:	f9 81       	ldd	r31, Y+1	; 0x01
    2fd4:	01 93       	st	Z+, r16
    2fd6:	f9 83       	std	Y+1, r31	; 0x01
    2fd8:	e8 83       	st	Y, r30
    2fda:	06 c0       	rjmp	.+12     	; 0x2fe8 <fputc+0x3c>
    2fdc:	e8 85       	ldd	r30, Y+8	; 0x08
    2fde:	f9 85       	ldd	r31, Y+9	; 0x09
    2fe0:	80 2f       	mov	r24, r16
    2fe2:	09 95       	icall
    2fe4:	89 2b       	or	r24, r25
    2fe6:	31 f4       	brne	.+12     	; 0x2ff4 <fputc+0x48>
    2fe8:	8e 81       	ldd	r24, Y+6	; 0x06
    2fea:	9f 81       	ldd	r25, Y+7	; 0x07
    2fec:	01 96       	adiw	r24, 0x01	; 1
    2fee:	9f 83       	std	Y+7, r25	; 0x07
    2ff0:	8e 83       	std	Y+6, r24	; 0x06
    2ff2:	02 c0       	rjmp	.+4      	; 0x2ff8 <fputc+0x4c>
    2ff4:	0f ef       	ldi	r16, 0xFF	; 255
    2ff6:	1f ef       	ldi	r17, 0xFF	; 255
    2ff8:	c8 01       	movw	r24, r16
    2ffa:	df 91       	pop	r29
    2ffc:	cf 91       	pop	r28
    2ffe:	1f 91       	pop	r17
    3000:	0f 91       	pop	r16
    3002:	08 95       	ret

00003004 <printf>:
    3004:	a0 e0       	ldi	r26, 0x00	; 0
    3006:	b0 e0       	ldi	r27, 0x00	; 0
    3008:	e8 e0       	ldi	r30, 0x08	; 8
    300a:	f8 e1       	ldi	r31, 0x18	; 24
    300c:	0c 94 cc 1a 	jmp	0x3598	; 0x3598 <__prologue_saves__+0x20>
    3010:	fe 01       	movw	r30, r28
    3012:	35 96       	adiw	r30, 0x05	; 5
    3014:	61 91       	ld	r22, Z+
    3016:	71 91       	ld	r23, Z+
    3018:	80 91 c4 0d 	lds	r24, 0x0DC4
    301c:	90 91 c5 0d 	lds	r25, 0x0DC5
    3020:	af 01       	movw	r20, r30
    3022:	0e 94 17 18 	call	0x302e	; 0x302e <vfprintf>
    3026:	20 96       	adiw	r28, 0x00	; 0
    3028:	e2 e0       	ldi	r30, 0x02	; 2
    302a:	0c 94 e8 1a 	jmp	0x35d0	; 0x35d0 <__epilogue_restores__+0x20>

0000302e <vfprintf>:
    302e:	ab e0       	ldi	r26, 0x0B	; 11
    3030:	b0 e0       	ldi	r27, 0x00	; 0
    3032:	ed e1       	ldi	r30, 0x1D	; 29
    3034:	f8 e1       	ldi	r31, 0x18	; 24
    3036:	0c 94 bc 1a 	jmp	0x3578	; 0x3578 <__prologue_saves__>
    303a:	3c 01       	movw	r6, r24
    303c:	2b 01       	movw	r4, r22
    303e:	5a 01       	movw	r10, r20
    3040:	fc 01       	movw	r30, r24
    3042:	17 82       	std	Z+7, r1	; 0x07
    3044:	16 82       	std	Z+6, r1	; 0x06
    3046:	83 81       	ldd	r24, Z+3	; 0x03
    3048:	81 fd       	sbrc	r24, 1
    304a:	03 c0       	rjmp	.+6      	; 0x3052 <vfprintf+0x24>
    304c:	6f ef       	ldi	r22, 0xFF	; 255
    304e:	7f ef       	ldi	r23, 0xFF	; 255
    3050:	c6 c1       	rjmp	.+908    	; 0x33de <vfprintf+0x3b0>
    3052:	9a e0       	ldi	r25, 0x0A	; 10
    3054:	89 2e       	mov	r8, r25
    3056:	1e 01       	movw	r2, r28
    3058:	08 94       	sec
    305a:	21 1c       	adc	r2, r1
    305c:	31 1c       	adc	r3, r1
    305e:	f3 01       	movw	r30, r6
    3060:	23 81       	ldd	r18, Z+3	; 0x03
    3062:	f2 01       	movw	r30, r4
    3064:	23 fd       	sbrc	r18, 3
    3066:	85 91       	lpm	r24, Z+
    3068:	23 ff       	sbrs	r18, 3
    306a:	81 91       	ld	r24, Z+
    306c:	2f 01       	movw	r4, r30
    306e:	88 23       	and	r24, r24
    3070:	09 f4       	brne	.+2      	; 0x3074 <vfprintf+0x46>
    3072:	b2 c1       	rjmp	.+868    	; 0x33d8 <vfprintf+0x3aa>
    3074:	85 32       	cpi	r24, 0x25	; 37
    3076:	39 f4       	brne	.+14     	; 0x3086 <vfprintf+0x58>
    3078:	23 fd       	sbrc	r18, 3
    307a:	85 91       	lpm	r24, Z+
    307c:	23 ff       	sbrs	r18, 3
    307e:	81 91       	ld	r24, Z+
    3080:	2f 01       	movw	r4, r30
    3082:	85 32       	cpi	r24, 0x25	; 37
    3084:	29 f4       	brne	.+10     	; 0x3090 <vfprintf+0x62>
    3086:	90 e0       	ldi	r25, 0x00	; 0
    3088:	b3 01       	movw	r22, r6
    308a:	0e 94 d6 17 	call	0x2fac	; 0x2fac <fputc>
    308e:	e7 cf       	rjmp	.-50     	; 0x305e <vfprintf+0x30>
    3090:	98 2f       	mov	r25, r24
    3092:	ff 24       	eor	r15, r15
    3094:	ee 24       	eor	r14, r14
    3096:	99 24       	eor	r9, r9
    3098:	ff e1       	ldi	r31, 0x1F	; 31
    309a:	ff 15       	cp	r31, r15
    309c:	d0 f0       	brcs	.+52     	; 0x30d2 <vfprintf+0xa4>
    309e:	9b 32       	cpi	r25, 0x2B	; 43
    30a0:	69 f0       	breq	.+26     	; 0x30bc <vfprintf+0x8e>
    30a2:	9c 32       	cpi	r25, 0x2C	; 44
    30a4:	28 f4       	brcc	.+10     	; 0x30b0 <vfprintf+0x82>
    30a6:	90 32       	cpi	r25, 0x20	; 32
    30a8:	59 f0       	breq	.+22     	; 0x30c0 <vfprintf+0x92>
    30aa:	93 32       	cpi	r25, 0x23	; 35
    30ac:	91 f4       	brne	.+36     	; 0x30d2 <vfprintf+0xa4>
    30ae:	0e c0       	rjmp	.+28     	; 0x30cc <vfprintf+0x9e>
    30b0:	9d 32       	cpi	r25, 0x2D	; 45
    30b2:	49 f0       	breq	.+18     	; 0x30c6 <vfprintf+0x98>
    30b4:	90 33       	cpi	r25, 0x30	; 48
    30b6:	69 f4       	brne	.+26     	; 0x30d2 <vfprintf+0xa4>
    30b8:	41 e0       	ldi	r20, 0x01	; 1
    30ba:	24 c0       	rjmp	.+72     	; 0x3104 <vfprintf+0xd6>
    30bc:	52 e0       	ldi	r21, 0x02	; 2
    30be:	f5 2a       	or	r15, r21
    30c0:	84 e0       	ldi	r24, 0x04	; 4
    30c2:	f8 2a       	or	r15, r24
    30c4:	28 c0       	rjmp	.+80     	; 0x3116 <vfprintf+0xe8>
    30c6:	98 e0       	ldi	r25, 0x08	; 8
    30c8:	f9 2a       	or	r15, r25
    30ca:	25 c0       	rjmp	.+74     	; 0x3116 <vfprintf+0xe8>
    30cc:	e0 e1       	ldi	r30, 0x10	; 16
    30ce:	fe 2a       	or	r15, r30
    30d0:	22 c0       	rjmp	.+68     	; 0x3116 <vfprintf+0xe8>
    30d2:	f7 fc       	sbrc	r15, 7
    30d4:	29 c0       	rjmp	.+82     	; 0x3128 <vfprintf+0xfa>
    30d6:	89 2f       	mov	r24, r25
    30d8:	80 53       	subi	r24, 0x30	; 48
    30da:	8a 30       	cpi	r24, 0x0A	; 10
    30dc:	70 f4       	brcc	.+28     	; 0x30fa <vfprintf+0xcc>
    30de:	f6 fe       	sbrs	r15, 6
    30e0:	05 c0       	rjmp	.+10     	; 0x30ec <vfprintf+0xbe>
    30e2:	98 9c       	mul	r9, r8
    30e4:	90 2c       	mov	r9, r0
    30e6:	11 24       	eor	r1, r1
    30e8:	98 0e       	add	r9, r24
    30ea:	15 c0       	rjmp	.+42     	; 0x3116 <vfprintf+0xe8>
    30ec:	e8 9c       	mul	r14, r8
    30ee:	e0 2c       	mov	r14, r0
    30f0:	11 24       	eor	r1, r1
    30f2:	e8 0e       	add	r14, r24
    30f4:	f0 e2       	ldi	r31, 0x20	; 32
    30f6:	ff 2a       	or	r15, r31
    30f8:	0e c0       	rjmp	.+28     	; 0x3116 <vfprintf+0xe8>
    30fa:	9e 32       	cpi	r25, 0x2E	; 46
    30fc:	29 f4       	brne	.+10     	; 0x3108 <vfprintf+0xda>
    30fe:	f6 fc       	sbrc	r15, 6
    3100:	6b c1       	rjmp	.+726    	; 0x33d8 <vfprintf+0x3aa>
    3102:	40 e4       	ldi	r20, 0x40	; 64
    3104:	f4 2a       	or	r15, r20
    3106:	07 c0       	rjmp	.+14     	; 0x3116 <vfprintf+0xe8>
    3108:	9c 36       	cpi	r25, 0x6C	; 108
    310a:	19 f4       	brne	.+6      	; 0x3112 <vfprintf+0xe4>
    310c:	50 e8       	ldi	r21, 0x80	; 128
    310e:	f5 2a       	or	r15, r21
    3110:	02 c0       	rjmp	.+4      	; 0x3116 <vfprintf+0xe8>
    3112:	98 36       	cpi	r25, 0x68	; 104
    3114:	49 f4       	brne	.+18     	; 0x3128 <vfprintf+0xfa>
    3116:	f2 01       	movw	r30, r4
    3118:	23 fd       	sbrc	r18, 3
    311a:	95 91       	lpm	r25, Z+
    311c:	23 ff       	sbrs	r18, 3
    311e:	91 91       	ld	r25, Z+
    3120:	2f 01       	movw	r4, r30
    3122:	99 23       	and	r25, r25
    3124:	09 f0       	breq	.+2      	; 0x3128 <vfprintf+0xfa>
    3126:	b8 cf       	rjmp	.-144    	; 0x3098 <vfprintf+0x6a>
    3128:	89 2f       	mov	r24, r25
    312a:	85 54       	subi	r24, 0x45	; 69
    312c:	83 30       	cpi	r24, 0x03	; 3
    312e:	18 f0       	brcs	.+6      	; 0x3136 <vfprintf+0x108>
    3130:	80 52       	subi	r24, 0x20	; 32
    3132:	83 30       	cpi	r24, 0x03	; 3
    3134:	38 f4       	brcc	.+14     	; 0x3144 <vfprintf+0x116>
    3136:	44 e0       	ldi	r20, 0x04	; 4
    3138:	50 e0       	ldi	r21, 0x00	; 0
    313a:	a4 0e       	add	r10, r20
    313c:	b5 1e       	adc	r11, r21
    313e:	5f e3       	ldi	r21, 0x3F	; 63
    3140:	59 83       	std	Y+1, r21	; 0x01
    3142:	0f c0       	rjmp	.+30     	; 0x3162 <vfprintf+0x134>
    3144:	93 36       	cpi	r25, 0x63	; 99
    3146:	31 f0       	breq	.+12     	; 0x3154 <vfprintf+0x126>
    3148:	93 37       	cpi	r25, 0x73	; 115
    314a:	79 f0       	breq	.+30     	; 0x316a <vfprintf+0x13c>
    314c:	93 35       	cpi	r25, 0x53	; 83
    314e:	09 f0       	breq	.+2      	; 0x3152 <vfprintf+0x124>
    3150:	56 c0       	rjmp	.+172    	; 0x31fe <vfprintf+0x1d0>
    3152:	20 c0       	rjmp	.+64     	; 0x3194 <vfprintf+0x166>
    3154:	f5 01       	movw	r30, r10
    3156:	80 81       	ld	r24, Z
    3158:	89 83       	std	Y+1, r24	; 0x01
    315a:	42 e0       	ldi	r20, 0x02	; 2
    315c:	50 e0       	ldi	r21, 0x00	; 0
    315e:	a4 0e       	add	r10, r20
    3160:	b5 1e       	adc	r11, r21
    3162:	61 01       	movw	r12, r2
    3164:	01 e0       	ldi	r16, 0x01	; 1
    3166:	10 e0       	ldi	r17, 0x00	; 0
    3168:	12 c0       	rjmp	.+36     	; 0x318e <vfprintf+0x160>
    316a:	f5 01       	movw	r30, r10
    316c:	c0 80       	ld	r12, Z
    316e:	d1 80       	ldd	r13, Z+1	; 0x01
    3170:	f6 fc       	sbrc	r15, 6
    3172:	03 c0       	rjmp	.+6      	; 0x317a <vfprintf+0x14c>
    3174:	6f ef       	ldi	r22, 0xFF	; 255
    3176:	7f ef       	ldi	r23, 0xFF	; 255
    3178:	02 c0       	rjmp	.+4      	; 0x317e <vfprintf+0x150>
    317a:	69 2d       	mov	r22, r9
    317c:	70 e0       	ldi	r23, 0x00	; 0
    317e:	42 e0       	ldi	r20, 0x02	; 2
    3180:	50 e0       	ldi	r21, 0x00	; 0
    3182:	a4 0e       	add	r10, r20
    3184:	b5 1e       	adc	r11, r21
    3186:	c6 01       	movw	r24, r12
    3188:	0e 94 19 1a 	call	0x3432	; 0x3432 <strnlen>
    318c:	8c 01       	movw	r16, r24
    318e:	5f e7       	ldi	r21, 0x7F	; 127
    3190:	f5 22       	and	r15, r21
    3192:	14 c0       	rjmp	.+40     	; 0x31bc <vfprintf+0x18e>
    3194:	f5 01       	movw	r30, r10
    3196:	c0 80       	ld	r12, Z
    3198:	d1 80       	ldd	r13, Z+1	; 0x01
    319a:	f6 fc       	sbrc	r15, 6
    319c:	03 c0       	rjmp	.+6      	; 0x31a4 <vfprintf+0x176>
    319e:	6f ef       	ldi	r22, 0xFF	; 255
    31a0:	7f ef       	ldi	r23, 0xFF	; 255
    31a2:	02 c0       	rjmp	.+4      	; 0x31a8 <vfprintf+0x17a>
    31a4:	69 2d       	mov	r22, r9
    31a6:	70 e0       	ldi	r23, 0x00	; 0
    31a8:	42 e0       	ldi	r20, 0x02	; 2
    31aa:	50 e0       	ldi	r21, 0x00	; 0
    31ac:	a4 0e       	add	r10, r20
    31ae:	b5 1e       	adc	r11, r21
    31b0:	c6 01       	movw	r24, r12
    31b2:	0e 94 0e 1a 	call	0x341c	; 0x341c <strnlen_P>
    31b6:	8c 01       	movw	r16, r24
    31b8:	50 e8       	ldi	r21, 0x80	; 128
    31ba:	f5 2a       	or	r15, r21
    31bc:	f3 fe       	sbrs	r15, 3
    31be:	07 c0       	rjmp	.+14     	; 0x31ce <vfprintf+0x1a0>
    31c0:	1a c0       	rjmp	.+52     	; 0x31f6 <vfprintf+0x1c8>
    31c2:	80 e2       	ldi	r24, 0x20	; 32
    31c4:	90 e0       	ldi	r25, 0x00	; 0
    31c6:	b3 01       	movw	r22, r6
    31c8:	0e 94 d6 17 	call	0x2fac	; 0x2fac <fputc>
    31cc:	ea 94       	dec	r14
    31ce:	8e 2d       	mov	r24, r14
    31d0:	90 e0       	ldi	r25, 0x00	; 0
    31d2:	08 17       	cp	r16, r24
    31d4:	19 07       	cpc	r17, r25
    31d6:	a8 f3       	brcs	.-22     	; 0x31c2 <vfprintf+0x194>
    31d8:	0e c0       	rjmp	.+28     	; 0x31f6 <vfprintf+0x1c8>
    31da:	f6 01       	movw	r30, r12
    31dc:	f7 fc       	sbrc	r15, 7
    31de:	85 91       	lpm	r24, Z+
    31e0:	f7 fe       	sbrs	r15, 7
    31e2:	81 91       	ld	r24, Z+
    31e4:	6f 01       	movw	r12, r30
    31e6:	90 e0       	ldi	r25, 0x00	; 0
    31e8:	b3 01       	movw	r22, r6
    31ea:	0e 94 d6 17 	call	0x2fac	; 0x2fac <fputc>
    31ee:	e1 10       	cpse	r14, r1
    31f0:	ea 94       	dec	r14
    31f2:	01 50       	subi	r16, 0x01	; 1
    31f4:	10 40       	sbci	r17, 0x00	; 0
    31f6:	01 15       	cp	r16, r1
    31f8:	11 05       	cpc	r17, r1
    31fa:	79 f7       	brne	.-34     	; 0x31da <vfprintf+0x1ac>
    31fc:	ea c0       	rjmp	.+468    	; 0x33d2 <vfprintf+0x3a4>
    31fe:	94 36       	cpi	r25, 0x64	; 100
    3200:	11 f0       	breq	.+4      	; 0x3206 <vfprintf+0x1d8>
    3202:	99 36       	cpi	r25, 0x69	; 105
    3204:	69 f5       	brne	.+90     	; 0x3260 <vfprintf+0x232>
    3206:	f7 fe       	sbrs	r15, 7
    3208:	08 c0       	rjmp	.+16     	; 0x321a <vfprintf+0x1ec>
    320a:	f5 01       	movw	r30, r10
    320c:	20 81       	ld	r18, Z
    320e:	31 81       	ldd	r19, Z+1	; 0x01
    3210:	42 81       	ldd	r20, Z+2	; 0x02
    3212:	53 81       	ldd	r21, Z+3	; 0x03
    3214:	84 e0       	ldi	r24, 0x04	; 4
    3216:	90 e0       	ldi	r25, 0x00	; 0
    3218:	0a c0       	rjmp	.+20     	; 0x322e <vfprintf+0x200>
    321a:	f5 01       	movw	r30, r10
    321c:	80 81       	ld	r24, Z
    321e:	91 81       	ldd	r25, Z+1	; 0x01
    3220:	9c 01       	movw	r18, r24
    3222:	44 27       	eor	r20, r20
    3224:	37 fd       	sbrc	r19, 7
    3226:	40 95       	com	r20
    3228:	54 2f       	mov	r21, r20
    322a:	82 e0       	ldi	r24, 0x02	; 2
    322c:	90 e0       	ldi	r25, 0x00	; 0
    322e:	a8 0e       	add	r10, r24
    3230:	b9 1e       	adc	r11, r25
    3232:	9f e6       	ldi	r25, 0x6F	; 111
    3234:	f9 22       	and	r15, r25
    3236:	57 ff       	sbrs	r21, 7
    3238:	09 c0       	rjmp	.+18     	; 0x324c <vfprintf+0x21e>
    323a:	50 95       	com	r21
    323c:	40 95       	com	r20
    323e:	30 95       	com	r19
    3240:	21 95       	neg	r18
    3242:	3f 4f       	sbci	r19, 0xFF	; 255
    3244:	4f 4f       	sbci	r20, 0xFF	; 255
    3246:	5f 4f       	sbci	r21, 0xFF	; 255
    3248:	e0 e8       	ldi	r30, 0x80	; 128
    324a:	fe 2a       	or	r15, r30
    324c:	ca 01       	movw	r24, r20
    324e:	b9 01       	movw	r22, r18
    3250:	a1 01       	movw	r20, r2
    3252:	2a e0       	ldi	r18, 0x0A	; 10
    3254:	30 e0       	ldi	r19, 0x00	; 0
    3256:	0e 94 24 1a 	call	0x3448	; 0x3448 <__ultoa_invert>
    325a:	d8 2e       	mov	r13, r24
    325c:	d2 18       	sub	r13, r2
    325e:	40 c0       	rjmp	.+128    	; 0x32e0 <vfprintf+0x2b2>
    3260:	95 37       	cpi	r25, 0x75	; 117
    3262:	29 f4       	brne	.+10     	; 0x326e <vfprintf+0x240>
    3264:	1f 2d       	mov	r17, r15
    3266:	1f 7e       	andi	r17, 0xEF	; 239
    3268:	2a e0       	ldi	r18, 0x0A	; 10
    326a:	30 e0       	ldi	r19, 0x00	; 0
    326c:	1d c0       	rjmp	.+58     	; 0x32a8 <vfprintf+0x27a>
    326e:	1f 2d       	mov	r17, r15
    3270:	19 7f       	andi	r17, 0xF9	; 249
    3272:	9f 36       	cpi	r25, 0x6F	; 111
    3274:	61 f0       	breq	.+24     	; 0x328e <vfprintf+0x260>
    3276:	90 37       	cpi	r25, 0x70	; 112
    3278:	20 f4       	brcc	.+8      	; 0x3282 <vfprintf+0x254>
    327a:	98 35       	cpi	r25, 0x58	; 88
    327c:	09 f0       	breq	.+2      	; 0x3280 <vfprintf+0x252>
    327e:	ac c0       	rjmp	.+344    	; 0x33d8 <vfprintf+0x3aa>
    3280:	0f c0       	rjmp	.+30     	; 0x32a0 <vfprintf+0x272>
    3282:	90 37       	cpi	r25, 0x70	; 112
    3284:	39 f0       	breq	.+14     	; 0x3294 <vfprintf+0x266>
    3286:	98 37       	cpi	r25, 0x78	; 120
    3288:	09 f0       	breq	.+2      	; 0x328c <vfprintf+0x25e>
    328a:	a6 c0       	rjmp	.+332    	; 0x33d8 <vfprintf+0x3aa>
    328c:	04 c0       	rjmp	.+8      	; 0x3296 <vfprintf+0x268>
    328e:	28 e0       	ldi	r18, 0x08	; 8
    3290:	30 e0       	ldi	r19, 0x00	; 0
    3292:	0a c0       	rjmp	.+20     	; 0x32a8 <vfprintf+0x27a>
    3294:	10 61       	ori	r17, 0x10	; 16
    3296:	14 fd       	sbrc	r17, 4
    3298:	14 60       	ori	r17, 0x04	; 4
    329a:	20 e1       	ldi	r18, 0x10	; 16
    329c:	30 e0       	ldi	r19, 0x00	; 0
    329e:	04 c0       	rjmp	.+8      	; 0x32a8 <vfprintf+0x27a>
    32a0:	14 fd       	sbrc	r17, 4
    32a2:	16 60       	ori	r17, 0x06	; 6
    32a4:	20 e1       	ldi	r18, 0x10	; 16
    32a6:	32 e0       	ldi	r19, 0x02	; 2
    32a8:	17 ff       	sbrs	r17, 7
    32aa:	08 c0       	rjmp	.+16     	; 0x32bc <vfprintf+0x28e>
    32ac:	f5 01       	movw	r30, r10
    32ae:	60 81       	ld	r22, Z
    32b0:	71 81       	ldd	r23, Z+1	; 0x01
    32b2:	82 81       	ldd	r24, Z+2	; 0x02
    32b4:	93 81       	ldd	r25, Z+3	; 0x03
    32b6:	44 e0       	ldi	r20, 0x04	; 4
    32b8:	50 e0       	ldi	r21, 0x00	; 0
    32ba:	08 c0       	rjmp	.+16     	; 0x32cc <vfprintf+0x29e>
    32bc:	f5 01       	movw	r30, r10
    32be:	80 81       	ld	r24, Z
    32c0:	91 81       	ldd	r25, Z+1	; 0x01
    32c2:	bc 01       	movw	r22, r24
    32c4:	80 e0       	ldi	r24, 0x00	; 0
    32c6:	90 e0       	ldi	r25, 0x00	; 0
    32c8:	42 e0       	ldi	r20, 0x02	; 2
    32ca:	50 e0       	ldi	r21, 0x00	; 0
    32cc:	a4 0e       	add	r10, r20
    32ce:	b5 1e       	adc	r11, r21
    32d0:	a1 01       	movw	r20, r2
    32d2:	0e 94 24 1a 	call	0x3448	; 0x3448 <__ultoa_invert>
    32d6:	d8 2e       	mov	r13, r24
    32d8:	d2 18       	sub	r13, r2
    32da:	8f e7       	ldi	r24, 0x7F	; 127
    32dc:	f8 2e       	mov	r15, r24
    32de:	f1 22       	and	r15, r17
    32e0:	f6 fe       	sbrs	r15, 6
    32e2:	0b c0       	rjmp	.+22     	; 0x32fa <vfprintf+0x2cc>
    32e4:	5e ef       	ldi	r21, 0xFE	; 254
    32e6:	f5 22       	and	r15, r21
    32e8:	d9 14       	cp	r13, r9
    32ea:	38 f4       	brcc	.+14     	; 0x32fa <vfprintf+0x2cc>
    32ec:	f4 fe       	sbrs	r15, 4
    32ee:	07 c0       	rjmp	.+14     	; 0x32fe <vfprintf+0x2d0>
    32f0:	f2 fc       	sbrc	r15, 2
    32f2:	05 c0       	rjmp	.+10     	; 0x32fe <vfprintf+0x2d0>
    32f4:	8f ee       	ldi	r24, 0xEF	; 239
    32f6:	f8 22       	and	r15, r24
    32f8:	02 c0       	rjmp	.+4      	; 0x32fe <vfprintf+0x2d0>
    32fa:	1d 2d       	mov	r17, r13
    32fc:	01 c0       	rjmp	.+2      	; 0x3300 <vfprintf+0x2d2>
    32fe:	19 2d       	mov	r17, r9
    3300:	f4 fe       	sbrs	r15, 4
    3302:	0d c0       	rjmp	.+26     	; 0x331e <vfprintf+0x2f0>
    3304:	fe 01       	movw	r30, r28
    3306:	ed 0d       	add	r30, r13
    3308:	f1 1d       	adc	r31, r1
    330a:	80 81       	ld	r24, Z
    330c:	80 33       	cpi	r24, 0x30	; 48
    330e:	19 f4       	brne	.+6      	; 0x3316 <vfprintf+0x2e8>
    3310:	99 ee       	ldi	r25, 0xE9	; 233
    3312:	f9 22       	and	r15, r25
    3314:	08 c0       	rjmp	.+16     	; 0x3326 <vfprintf+0x2f8>
    3316:	1f 5f       	subi	r17, 0xFF	; 255
    3318:	f2 fe       	sbrs	r15, 2
    331a:	05 c0       	rjmp	.+10     	; 0x3326 <vfprintf+0x2f8>
    331c:	03 c0       	rjmp	.+6      	; 0x3324 <vfprintf+0x2f6>
    331e:	8f 2d       	mov	r24, r15
    3320:	86 78       	andi	r24, 0x86	; 134
    3322:	09 f0       	breq	.+2      	; 0x3326 <vfprintf+0x2f8>
    3324:	1f 5f       	subi	r17, 0xFF	; 255
    3326:	0f 2d       	mov	r16, r15
    3328:	f3 fc       	sbrc	r15, 3
    332a:	14 c0       	rjmp	.+40     	; 0x3354 <vfprintf+0x326>
    332c:	f0 fe       	sbrs	r15, 0
    332e:	0f c0       	rjmp	.+30     	; 0x334e <vfprintf+0x320>
    3330:	1e 15       	cp	r17, r14
    3332:	10 f0       	brcs	.+4      	; 0x3338 <vfprintf+0x30a>
    3334:	9d 2c       	mov	r9, r13
    3336:	0b c0       	rjmp	.+22     	; 0x334e <vfprintf+0x320>
    3338:	9d 2c       	mov	r9, r13
    333a:	9e 0c       	add	r9, r14
    333c:	91 1a       	sub	r9, r17
    333e:	1e 2d       	mov	r17, r14
    3340:	06 c0       	rjmp	.+12     	; 0x334e <vfprintf+0x320>
    3342:	80 e2       	ldi	r24, 0x20	; 32
    3344:	90 e0       	ldi	r25, 0x00	; 0
    3346:	b3 01       	movw	r22, r6
    3348:	0e 94 d6 17 	call	0x2fac	; 0x2fac <fputc>
    334c:	1f 5f       	subi	r17, 0xFF	; 255
    334e:	1e 15       	cp	r17, r14
    3350:	c0 f3       	brcs	.-16     	; 0x3342 <vfprintf+0x314>
    3352:	04 c0       	rjmp	.+8      	; 0x335c <vfprintf+0x32e>
    3354:	1e 15       	cp	r17, r14
    3356:	10 f4       	brcc	.+4      	; 0x335c <vfprintf+0x32e>
    3358:	e1 1a       	sub	r14, r17
    335a:	01 c0       	rjmp	.+2      	; 0x335e <vfprintf+0x330>
    335c:	ee 24       	eor	r14, r14
    335e:	04 ff       	sbrs	r16, 4
    3360:	0f c0       	rjmp	.+30     	; 0x3380 <vfprintf+0x352>
    3362:	80 e3       	ldi	r24, 0x30	; 48
    3364:	90 e0       	ldi	r25, 0x00	; 0
    3366:	b3 01       	movw	r22, r6
    3368:	0e 94 d6 17 	call	0x2fac	; 0x2fac <fputc>
    336c:	02 ff       	sbrs	r16, 2
    336e:	1d c0       	rjmp	.+58     	; 0x33aa <vfprintf+0x37c>
    3370:	01 fd       	sbrc	r16, 1
    3372:	03 c0       	rjmp	.+6      	; 0x337a <vfprintf+0x34c>
    3374:	88 e7       	ldi	r24, 0x78	; 120
    3376:	90 e0       	ldi	r25, 0x00	; 0
    3378:	0e c0       	rjmp	.+28     	; 0x3396 <vfprintf+0x368>
    337a:	88 e5       	ldi	r24, 0x58	; 88
    337c:	90 e0       	ldi	r25, 0x00	; 0
    337e:	0b c0       	rjmp	.+22     	; 0x3396 <vfprintf+0x368>
    3380:	80 2f       	mov	r24, r16
    3382:	86 78       	andi	r24, 0x86	; 134
    3384:	91 f0       	breq	.+36     	; 0x33aa <vfprintf+0x37c>
    3386:	01 ff       	sbrs	r16, 1
    3388:	02 c0       	rjmp	.+4      	; 0x338e <vfprintf+0x360>
    338a:	8b e2       	ldi	r24, 0x2B	; 43
    338c:	01 c0       	rjmp	.+2      	; 0x3390 <vfprintf+0x362>
    338e:	80 e2       	ldi	r24, 0x20	; 32
    3390:	f7 fc       	sbrc	r15, 7
    3392:	8d e2       	ldi	r24, 0x2D	; 45
    3394:	90 e0       	ldi	r25, 0x00	; 0
    3396:	b3 01       	movw	r22, r6
    3398:	0e 94 d6 17 	call	0x2fac	; 0x2fac <fputc>
    339c:	06 c0       	rjmp	.+12     	; 0x33aa <vfprintf+0x37c>
    339e:	80 e3       	ldi	r24, 0x30	; 48
    33a0:	90 e0       	ldi	r25, 0x00	; 0
    33a2:	b3 01       	movw	r22, r6
    33a4:	0e 94 d6 17 	call	0x2fac	; 0x2fac <fputc>
    33a8:	9a 94       	dec	r9
    33aa:	d9 14       	cp	r13, r9
    33ac:	c0 f3       	brcs	.-16     	; 0x339e <vfprintf+0x370>
    33ae:	da 94       	dec	r13
    33b0:	f1 01       	movw	r30, r2
    33b2:	ed 0d       	add	r30, r13
    33b4:	f1 1d       	adc	r31, r1
    33b6:	80 81       	ld	r24, Z
    33b8:	90 e0       	ldi	r25, 0x00	; 0
    33ba:	b3 01       	movw	r22, r6
    33bc:	0e 94 d6 17 	call	0x2fac	; 0x2fac <fputc>
    33c0:	dd 20       	and	r13, r13
    33c2:	a9 f7       	brne	.-22     	; 0x33ae <vfprintf+0x380>
    33c4:	06 c0       	rjmp	.+12     	; 0x33d2 <vfprintf+0x3a4>
    33c6:	80 e2       	ldi	r24, 0x20	; 32
    33c8:	90 e0       	ldi	r25, 0x00	; 0
    33ca:	b3 01       	movw	r22, r6
    33cc:	0e 94 d6 17 	call	0x2fac	; 0x2fac <fputc>
    33d0:	ea 94       	dec	r14
    33d2:	ee 20       	and	r14, r14
    33d4:	c1 f7       	brne	.-16     	; 0x33c6 <vfprintf+0x398>
    33d6:	43 ce       	rjmp	.-890    	; 0x305e <vfprintf+0x30>
    33d8:	f3 01       	movw	r30, r6
    33da:	66 81       	ldd	r22, Z+6	; 0x06
    33dc:	77 81       	ldd	r23, Z+7	; 0x07
    33de:	cb 01       	movw	r24, r22
    33e0:	2b 96       	adiw	r28, 0x0b	; 11
    33e2:	e2 e1       	ldi	r30, 0x12	; 18
    33e4:	0c 94 d8 1a 	jmp	0x35b0	; 0x35b0 <__epilogue_restores__>

000033e8 <__eerd_byte_m644p>:
    33e8:	f9 99       	sbic	0x1f, 1	; 31
    33ea:	fe cf       	rjmp	.-4      	; 0x33e8 <__eerd_byte_m644p>
    33ec:	92 bd       	out	0x22, r25	; 34
    33ee:	81 bd       	out	0x21, r24	; 33
    33f0:	f8 9a       	sbi	0x1f, 0	; 31
    33f2:	99 27       	eor	r25, r25
    33f4:	80 b5       	in	r24, 0x20	; 32
    33f6:	08 95       	ret

000033f8 <__eeupd_byte_m644p>:
    33f8:	26 2f       	mov	r18, r22

000033fa <__eeupd_r18_m644p>:
    33fa:	f9 99       	sbic	0x1f, 1	; 31
    33fc:	fe cf       	rjmp	.-4      	; 0x33fa <__eeupd_r18_m644p>
    33fe:	92 bd       	out	0x22, r25	; 34
    3400:	81 bd       	out	0x21, r24	; 33
    3402:	f8 9a       	sbi	0x1f, 0	; 31
    3404:	01 97       	sbiw	r24, 0x01	; 1
    3406:	00 b4       	in	r0, 0x20	; 32
    3408:	02 16       	cp	r0, r18
    340a:	39 f0       	breq	.+14     	; 0x341a <__eeupd_r18_m644p+0x20>
    340c:	1f ba       	out	0x1f, r1	; 31
    340e:	20 bd       	out	0x20, r18	; 32
    3410:	0f b6       	in	r0, 0x3f	; 63
    3412:	f8 94       	cli
    3414:	fa 9a       	sbi	0x1f, 2	; 31
    3416:	f9 9a       	sbi	0x1f, 1	; 31
    3418:	0f be       	out	0x3f, r0	; 63
    341a:	08 95       	ret

0000341c <strnlen_P>:
    341c:	fc 01       	movw	r30, r24
    341e:	05 90       	lpm	r0, Z+
    3420:	61 50       	subi	r22, 0x01	; 1
    3422:	70 40       	sbci	r23, 0x00	; 0
    3424:	01 10       	cpse	r0, r1
    3426:	d8 f7       	brcc	.-10     	; 0x341e <strnlen_P+0x2>
    3428:	80 95       	com	r24
    342a:	90 95       	com	r25
    342c:	8e 0f       	add	r24, r30
    342e:	9f 1f       	adc	r25, r31
    3430:	08 95       	ret

00003432 <strnlen>:
    3432:	fc 01       	movw	r30, r24
    3434:	61 50       	subi	r22, 0x01	; 1
    3436:	70 40       	sbci	r23, 0x00	; 0
    3438:	01 90       	ld	r0, Z+
    343a:	01 10       	cpse	r0, r1
    343c:	d8 f7       	brcc	.-10     	; 0x3434 <strnlen+0x2>
    343e:	80 95       	com	r24
    3440:	90 95       	com	r25
    3442:	8e 0f       	add	r24, r30
    3444:	9f 1f       	adc	r25, r31
    3446:	08 95       	ret

00003448 <__ultoa_invert>:
    3448:	fa 01       	movw	r30, r20
    344a:	aa 27       	eor	r26, r26
    344c:	28 30       	cpi	r18, 0x08	; 8
    344e:	51 f1       	breq	.+84     	; 0x34a4 <__ultoa_invert+0x5c>
    3450:	20 31       	cpi	r18, 0x10	; 16
    3452:	81 f1       	breq	.+96     	; 0x34b4 <__ultoa_invert+0x6c>
    3454:	e8 94       	clt
    3456:	6f 93       	push	r22
    3458:	6e 7f       	andi	r22, 0xFE	; 254
    345a:	6e 5f       	subi	r22, 0xFE	; 254
    345c:	7f 4f       	sbci	r23, 0xFF	; 255
    345e:	8f 4f       	sbci	r24, 0xFF	; 255
    3460:	9f 4f       	sbci	r25, 0xFF	; 255
    3462:	af 4f       	sbci	r26, 0xFF	; 255
    3464:	b1 e0       	ldi	r27, 0x01	; 1
    3466:	3e d0       	rcall	.+124    	; 0x34e4 <__ultoa_invert+0x9c>
    3468:	b4 e0       	ldi	r27, 0x04	; 4
    346a:	3c d0       	rcall	.+120    	; 0x34e4 <__ultoa_invert+0x9c>
    346c:	67 0f       	add	r22, r23
    346e:	78 1f       	adc	r23, r24
    3470:	89 1f       	adc	r24, r25
    3472:	9a 1f       	adc	r25, r26
    3474:	a1 1d       	adc	r26, r1
    3476:	68 0f       	add	r22, r24
    3478:	79 1f       	adc	r23, r25
    347a:	8a 1f       	adc	r24, r26
    347c:	91 1d       	adc	r25, r1
    347e:	a1 1d       	adc	r26, r1
    3480:	6a 0f       	add	r22, r26
    3482:	71 1d       	adc	r23, r1
    3484:	81 1d       	adc	r24, r1
    3486:	91 1d       	adc	r25, r1
    3488:	a1 1d       	adc	r26, r1
    348a:	20 d0       	rcall	.+64     	; 0x34cc <__ultoa_invert+0x84>
    348c:	09 f4       	brne	.+2      	; 0x3490 <__ultoa_invert+0x48>
    348e:	68 94       	set
    3490:	3f 91       	pop	r19
    3492:	2a e0       	ldi	r18, 0x0A	; 10
    3494:	26 9f       	mul	r18, r22
    3496:	11 24       	eor	r1, r1
    3498:	30 19       	sub	r19, r0
    349a:	30 5d       	subi	r19, 0xD0	; 208
    349c:	31 93       	st	Z+, r19
    349e:	de f6       	brtc	.-74     	; 0x3456 <__ultoa_invert+0xe>
    34a0:	cf 01       	movw	r24, r30
    34a2:	08 95       	ret
    34a4:	46 2f       	mov	r20, r22
    34a6:	47 70       	andi	r20, 0x07	; 7
    34a8:	40 5d       	subi	r20, 0xD0	; 208
    34aa:	41 93       	st	Z+, r20
    34ac:	b3 e0       	ldi	r27, 0x03	; 3
    34ae:	0f d0       	rcall	.+30     	; 0x34ce <__ultoa_invert+0x86>
    34b0:	c9 f7       	brne	.-14     	; 0x34a4 <__ultoa_invert+0x5c>
    34b2:	f6 cf       	rjmp	.-20     	; 0x34a0 <__ultoa_invert+0x58>
    34b4:	46 2f       	mov	r20, r22
    34b6:	4f 70       	andi	r20, 0x0F	; 15
    34b8:	40 5d       	subi	r20, 0xD0	; 208
    34ba:	4a 33       	cpi	r20, 0x3A	; 58
    34bc:	18 f0       	brcs	.+6      	; 0x34c4 <__ultoa_invert+0x7c>
    34be:	49 5d       	subi	r20, 0xD9	; 217
    34c0:	31 fd       	sbrc	r19, 1
    34c2:	40 52       	subi	r20, 0x20	; 32
    34c4:	41 93       	st	Z+, r20
    34c6:	02 d0       	rcall	.+4      	; 0x34cc <__ultoa_invert+0x84>
    34c8:	a9 f7       	brne	.-22     	; 0x34b4 <__ultoa_invert+0x6c>
    34ca:	ea cf       	rjmp	.-44     	; 0x34a0 <__ultoa_invert+0x58>
    34cc:	b4 e0       	ldi	r27, 0x04	; 4
    34ce:	a6 95       	lsr	r26
    34d0:	97 95       	ror	r25
    34d2:	87 95       	ror	r24
    34d4:	77 95       	ror	r23
    34d6:	67 95       	ror	r22
    34d8:	ba 95       	dec	r27
    34da:	c9 f7       	brne	.-14     	; 0x34ce <__ultoa_invert+0x86>
    34dc:	00 97       	sbiw	r24, 0x00	; 0
    34de:	61 05       	cpc	r22, r1
    34e0:	71 05       	cpc	r23, r1
    34e2:	08 95       	ret
    34e4:	9b 01       	movw	r18, r22
    34e6:	ac 01       	movw	r20, r24
    34e8:	0a 2e       	mov	r0, r26
    34ea:	06 94       	lsr	r0
    34ec:	57 95       	ror	r21
    34ee:	47 95       	ror	r20
    34f0:	37 95       	ror	r19
    34f2:	27 95       	ror	r18
    34f4:	ba 95       	dec	r27
    34f6:	c9 f7       	brne	.-14     	; 0x34ea <__ultoa_invert+0xa2>
    34f8:	62 0f       	add	r22, r18
    34fa:	73 1f       	adc	r23, r19
    34fc:	84 1f       	adc	r24, r20
    34fe:	95 1f       	adc	r25, r21
    3500:	a0 1d       	adc	r26, r0
    3502:	08 95       	ret

00003504 <__mulsi3>:
    3504:	62 9f       	mul	r22, r18
    3506:	d0 01       	movw	r26, r0
    3508:	73 9f       	mul	r23, r19
    350a:	f0 01       	movw	r30, r0
    350c:	82 9f       	mul	r24, r18
    350e:	e0 0d       	add	r30, r0
    3510:	f1 1d       	adc	r31, r1
    3512:	64 9f       	mul	r22, r20
    3514:	e0 0d       	add	r30, r0
    3516:	f1 1d       	adc	r31, r1
    3518:	92 9f       	mul	r25, r18
    351a:	f0 0d       	add	r31, r0
    351c:	83 9f       	mul	r24, r19
    351e:	f0 0d       	add	r31, r0
    3520:	74 9f       	mul	r23, r20
    3522:	f0 0d       	add	r31, r0
    3524:	65 9f       	mul	r22, r21
    3526:	f0 0d       	add	r31, r0
    3528:	99 27       	eor	r25, r25
    352a:	72 9f       	mul	r23, r18
    352c:	b0 0d       	add	r27, r0
    352e:	e1 1d       	adc	r30, r1
    3530:	f9 1f       	adc	r31, r25
    3532:	63 9f       	mul	r22, r19
    3534:	b0 0d       	add	r27, r0
    3536:	e1 1d       	adc	r30, r1
    3538:	f9 1f       	adc	r31, r25
    353a:	bd 01       	movw	r22, r26
    353c:	cf 01       	movw	r24, r30
    353e:	11 24       	eor	r1, r1
    3540:	08 95       	ret

00003542 <__divmodsi4>:
    3542:	97 fb       	bst	r25, 7
    3544:	09 2e       	mov	r0, r25
    3546:	05 26       	eor	r0, r21
    3548:	0e d0       	rcall	.+28     	; 0x3566 <__divmodsi4_neg1>
    354a:	57 fd       	sbrc	r21, 7
    354c:	04 d0       	rcall	.+8      	; 0x3556 <__divmodsi4_neg2>
    354e:	4b d0       	rcall	.+150    	; 0x35e6 <__udivmodsi4>
    3550:	0a d0       	rcall	.+20     	; 0x3566 <__divmodsi4_neg1>
    3552:	00 1c       	adc	r0, r0
    3554:	38 f4       	brcc	.+14     	; 0x3564 <__divmodsi4_exit>

00003556 <__divmodsi4_neg2>:
    3556:	50 95       	com	r21
    3558:	40 95       	com	r20
    355a:	30 95       	com	r19
    355c:	21 95       	neg	r18
    355e:	3f 4f       	sbci	r19, 0xFF	; 255
    3560:	4f 4f       	sbci	r20, 0xFF	; 255
    3562:	5f 4f       	sbci	r21, 0xFF	; 255

00003564 <__divmodsi4_exit>:
    3564:	08 95       	ret

00003566 <__divmodsi4_neg1>:
    3566:	f6 f7       	brtc	.-4      	; 0x3564 <__divmodsi4_exit>
    3568:	90 95       	com	r25
    356a:	80 95       	com	r24
    356c:	70 95       	com	r23
    356e:	61 95       	neg	r22
    3570:	7f 4f       	sbci	r23, 0xFF	; 255
    3572:	8f 4f       	sbci	r24, 0xFF	; 255
    3574:	9f 4f       	sbci	r25, 0xFF	; 255
    3576:	08 95       	ret

00003578 <__prologue_saves__>:
    3578:	2f 92       	push	r2
    357a:	3f 92       	push	r3
    357c:	4f 92       	push	r4
    357e:	5f 92       	push	r5
    3580:	6f 92       	push	r6
    3582:	7f 92       	push	r7
    3584:	8f 92       	push	r8
    3586:	9f 92       	push	r9
    3588:	af 92       	push	r10
    358a:	bf 92       	push	r11
    358c:	cf 92       	push	r12
    358e:	df 92       	push	r13
    3590:	ef 92       	push	r14
    3592:	ff 92       	push	r15
    3594:	0f 93       	push	r16
    3596:	1f 93       	push	r17
    3598:	cf 93       	push	r28
    359a:	df 93       	push	r29
    359c:	cd b7       	in	r28, 0x3d	; 61
    359e:	de b7       	in	r29, 0x3e	; 62
    35a0:	ca 1b       	sub	r28, r26
    35a2:	db 0b       	sbc	r29, r27
    35a4:	0f b6       	in	r0, 0x3f	; 63
    35a6:	f8 94       	cli
    35a8:	de bf       	out	0x3e, r29	; 62
    35aa:	0f be       	out	0x3f, r0	; 63
    35ac:	cd bf       	out	0x3d, r28	; 61
    35ae:	09 94       	ijmp

000035b0 <__epilogue_restores__>:
    35b0:	2a 88       	ldd	r2, Y+18	; 0x12
    35b2:	39 88       	ldd	r3, Y+17	; 0x11
    35b4:	48 88       	ldd	r4, Y+16	; 0x10
    35b6:	5f 84       	ldd	r5, Y+15	; 0x0f
    35b8:	6e 84       	ldd	r6, Y+14	; 0x0e
    35ba:	7d 84       	ldd	r7, Y+13	; 0x0d
    35bc:	8c 84       	ldd	r8, Y+12	; 0x0c
    35be:	9b 84       	ldd	r9, Y+11	; 0x0b
    35c0:	aa 84       	ldd	r10, Y+10	; 0x0a
    35c2:	b9 84       	ldd	r11, Y+9	; 0x09
    35c4:	c8 84       	ldd	r12, Y+8	; 0x08
    35c6:	df 80       	ldd	r13, Y+7	; 0x07
    35c8:	ee 80       	ldd	r14, Y+6	; 0x06
    35ca:	fd 80       	ldd	r15, Y+5	; 0x05
    35cc:	0c 81       	ldd	r16, Y+4	; 0x04
    35ce:	1b 81       	ldd	r17, Y+3	; 0x03
    35d0:	aa 81       	ldd	r26, Y+2	; 0x02
    35d2:	b9 81       	ldd	r27, Y+1	; 0x01
    35d4:	ce 0f       	add	r28, r30
    35d6:	d1 1d       	adc	r29, r1
    35d8:	0f b6       	in	r0, 0x3f	; 63
    35da:	f8 94       	cli
    35dc:	de bf       	out	0x3e, r29	; 62
    35de:	0f be       	out	0x3f, r0	; 63
    35e0:	cd bf       	out	0x3d, r28	; 61
    35e2:	ed 01       	movw	r28, r26
    35e4:	08 95       	ret

000035e6 <__udivmodsi4>:
    35e6:	a1 e2       	ldi	r26, 0x21	; 33
    35e8:	1a 2e       	mov	r1, r26
    35ea:	aa 1b       	sub	r26, r26
    35ec:	bb 1b       	sub	r27, r27
    35ee:	fd 01       	movw	r30, r26
    35f0:	0d c0       	rjmp	.+26     	; 0x360c <__udivmodsi4_ep>

000035f2 <__udivmodsi4_loop>:
    35f2:	aa 1f       	adc	r26, r26
    35f4:	bb 1f       	adc	r27, r27
    35f6:	ee 1f       	adc	r30, r30
    35f8:	ff 1f       	adc	r31, r31
    35fa:	a2 17       	cp	r26, r18
    35fc:	b3 07       	cpc	r27, r19
    35fe:	e4 07       	cpc	r30, r20
    3600:	f5 07       	cpc	r31, r21
    3602:	20 f0       	brcs	.+8      	; 0x360c <__udivmodsi4_ep>
    3604:	a2 1b       	sub	r26, r18
    3606:	b3 0b       	sbc	r27, r19
    3608:	e4 0b       	sbc	r30, r20
    360a:	f5 0b       	sbc	r31, r21

0000360c <__udivmodsi4_ep>:
    360c:	66 1f       	adc	r22, r22
    360e:	77 1f       	adc	r23, r23
    3610:	88 1f       	adc	r24, r24
    3612:	99 1f       	adc	r25, r25
    3614:	1a 94       	dec	r1
    3616:	69 f7       	brne	.-38     	; 0x35f2 <__udivmodsi4_loop>
    3618:	60 95       	com	r22
    361a:	70 95       	com	r23
    361c:	80 95       	com	r24
    361e:	90 95       	com	r25
    3620:	9b 01       	movw	r18, r22
    3622:	ac 01       	movw	r20, r24
    3624:	bd 01       	movw	r22, r26
    3626:	cf 01       	movw	r24, r30
    3628:	08 95       	ret

0000362a <_exit>:
    362a:	f8 94       	cli

0000362c <__stop_program>:
    362c:	ff cf       	rjmp	.-2      	; 0x362c <__stop_program>
